Archive member included to satisfy reference by file (symbol)

build/cooja/mtype742.a(simEnvChange.o)
                              build/cooja/mtype742.o (simDontFallAsleep)
build/cooja/mtype742.a(cooja_mt.o)
                              build/cooja/mtype742.o (cooja_mt_start)
build/cooja/mtype742.a(cooja_mtarch.o)
                              build/cooja/mtype742.a(cooja_mt.o) (cooja_mtarch_start)
build/cooja/mtype742.a(rtimer-arch.o)
                              build/cooja/mtype742.o (rtimer_arch_check)
build/cooja/mtype742.a(beep.o)
                              build/cooja/mtype742.o (beep_interface)
build/cooja/mtype742.a(leds-arch.o)
                              build/cooja/mtype742.o (leds_interface)
build/cooja/mtype742.a(moteid.o)
                              build/cooja/mtype742.o (moteid_interface)
build/cooja/mtype742.a(pir-sensor.o)
                              build/cooja/mtype742.o (pir_interface)
build/cooja/mtype742.a(rs232.o)
                              build/cooja/mtype742.o (rs232_interface)
build/cooja/mtype742.a(vib-sensor.o)
                              build/cooja/mtype742.o (vib_interface)
build/cooja/mtype742.a(clock.o)
                              build/cooja/mtype742.o (clock_interface)
build/cooja/mtype742.a(cooja-log.o)
                              build/cooja/mtype742.o (simlog_interface)
build/cooja/mtype742.a(cfs-cooja.o)
                              build/cooja/mtype742.o (cfs_interface)
build/cooja/mtype742.a(cooja-radio.o)
                              build/cooja/mtype742.o (radio_interface)
build/cooja/mtype742.a(eeprom.o)
                              build/cooja/mtype742.o (eeprom_interface)
build/cooja/mtype742.a(random.o)
                              build/cooja/mtype742.a(moteid.o) (random_init)
build/cooja/mtype742.a(sensors.o)
                              build/cooja/mtype742.a(pir-sensor.o) (sensors_changed)
build/cooja/mtype742.a(leds.o)
                              build/cooja/mtype742.a(leds-arch.o) (leds_get)
build/cooja/mtype742.a(gpio-hal-arch.o)
                              build/cooja/mtype742.a(leds-arch.o) (gpio_hal_arch_register_pin_callback)
build/cooja/mtype742.a(buttons.o)
                              build/cooja/mtype742.o (button_interface)
build/cooja/mtype742.a(contiki-main.o)
                              build/cooja/mtype742.o (main)
build/cooja/mtype742.a(autostart.o)
                              build/cooja/mtype742.a(contiki-main.o) (autostart_start)
build/cooja/mtype742.a(ctimer.o)
                              build/cooja/mtype742.a(contiki-main.o) (ctimer_init)
build/cooja/mtype742.a(log.o)
                              build/cooja/mtype742.a(contiki-main.o) (curr_log_level_main)
build/cooja/mtype742.a(energest.o)
                              build/cooja/mtype742.a(contiki-main.o) (energest_init)
build/cooja/mtype742.a(etimer.o)
                              build/cooja/mtype742.a(contiki-main.o) (etimer_process)
build/cooja/mtype742.a(node-id.o)
                              build/cooja/mtype742.a(contiki-main.o) (node_id)
build/cooja/mtype742.a(rtimer.o)
                              build/cooja/mtype742.a(contiki-main.o) (rtimer_init)
build/cooja/mtype742.a(process.o)
                              build/cooja/mtype742.a(ctimer.o) (process_current)
build/cooja/mtype742.a(timer.o)
                              build/cooja/mtype742.a(etimer.o) (timer_set)
build/cooja/mtype742.a(list.o)
                              build/cooja/mtype742.a(ctimer.o) (list_init)
build/cooja/mtype742.a(button-hal.o)
                              build/cooja/mtype742.o (button_hal_init)
build/cooja/mtype742.a(serial-line.o)
                              build/cooja/mtype742.a(rs232.o) (serial_line_input_byte)
build/cooja/mtype742.a(gpio-hal.o)
                              build/cooja/mtype742.a(button-hal.o) (gpio_hal_register_handler)
build/cooja/mtype742.a(queuebuf.o)
                              build/cooja/mtype742.a(contiki-main.o) (queuebuf_init)
build/cooja/mtype742.a(packetbuf.o)
                              build/cooja/mtype742.a(cooja-radio.o) (packetbuf_clear)
build/cooja/mtype742.a(netstack.o)
                              build/cooja/mtype742.a(contiki-main.o) (netstack_init)
build/cooja/mtype742.a(linkaddr.o)
                              build/cooja/mtype742.a(contiki-main.o) (linkaddr_node_addr)
build/cooja/mtype742.a(csma.o)
                              build/cooja/mtype742.a(cooja-radio.o) (csma_driver)
build/cooja/mtype742.a(csma-output.o)
                              build/cooja/mtype742.a(csma.o) (csma_output_packet)
build/cooja/mtype742.a(uip-ds6.o)
                              build/cooja/mtype742.a(contiki-main.o) (uip_ds6_get_link_local)
build/cooja/mtype742.a(uiplib.o)
                              build/cooja/mtype742.a(log.o) (uiplib_ipaddr_snprint)
build/cooja/mtype742.a(tcpip.o)
                              build/cooja/mtype742.a(contiki-main.o) (tcpip_process)
build/cooja/mtype742.a(uip-ds6-route.o)
                              build/cooja/mtype742.a(uip-ds6.o) (uip_ds6_route_init)
build/cooja/mtype742.a(uip-ds6-nbr.o)
                              build/cooja/mtype742.a(uip-ds6.o) (uip_ds6_neighbors_init)
build/cooja/mtype742.a(uip6.o)
                              build/cooja/mtype742.a(contiki-main.o) (uip_lladdr)
build/cooja/mtype742.a(uip-nd6.o)
                              build/cooja/mtype742.a(uip6.o) (uip_nd6_init)
build/cooja/mtype742.a(simple-udp.o)
                              build/cooja/obj/TransferUDP.o (simple_udp_sendto)
build/cooja/mtype742.a(sicslowpan.o)
                              build/cooja/mtype742.a(contiki-main.o) (sicslowpan_driver)
build/cooja/mtype742.a(rpl.o)
                              build/cooja/obj/TransferUDP.o (rpl_lite_driver)
build/cooja/mtype742.a(rpl-dag.o)
                              build/cooja/mtype742.a(rpl.o) (curr_instance)
build/cooja/mtype742.a(rpl-dag-root.o)
                              build/cooja/mtype742.a(rpl.o) (rpl_dag_root_is_root)
build/cooja/mtype742.a(watchdog.o)
                              build/cooja/mtype742.a(contiki-main.o) (watchdog_init)
build/cooja/mtype742.a(int-master.o)
                              build/cooja/mtype742.a(button-hal.o) (int_master_read_and_disable)
build/cooja/mtype742.a(stimer.o)
                              build/cooja/mtype742.a(uip-ds6.o) (stimer_set)
build/cooja/mtype742.a(memb.o)
                              build/cooja/mtype742.a(queuebuf.o) (memb_init)
build/cooja/mtype742.a(assert.o)
                              build/cooja/mtype742.a(csma-output.o) (_xassert)
build/cooja/mtype742.a(ringbuf.o)
                              build/cooja/mtype742.a(serial-line.o) (ringbuf_init)
build/cooja/mtype742.a(nbr-table.o)
                              build/cooja/mtype742.a(uip-ds6-nbr.o) (nbr_table_get_from_lladdr)
build/cooja/mtype742.a(link-stats.o)
                              build/cooja/mtype742.a(sicslowpan.o) (link_stats_packet_sent)
build/cooja/mtype742.a(mac-sequence.o)
                              build/cooja/mtype742.a(csma.o) (mac_sequence_is_duplicate)
build/cooja/mtype742.a(mac.o)
                              build/cooja/mtype742.a(csma-output.o) (mac_call_sent_callback)
build/cooja/mtype742.a(framer-802154.o)
                              build/cooja/mtype742.a(csma.o) (framer_802154)
build/cooja/mtype742.a(frame802154.o)
                              build/cooja/mtype742.a(framer-802154.o) (frame802154_get_pan_id)
build/cooja/mtype742.a(csma-security.o)
                              build/cooja/mtype742.a(csma-output.o) (csma_security_create_frame)
build/cooja/mtype742.a(uipbuf.o)
                              build/cooja/mtype742.a(tcpip.o) (uipbuf_clear)
build/cooja/mtype742.a(uip-icmp6.o)
                              build/cooja/mtype742.a(uip6.o) (uip_icmp6_input)
build/cooja/mtype742.a(uip-sr.o)
                              build/cooja/mtype742.a(rpl-dag-root.o) (uip_sr_num_nodes)
build/cooja/mtype742.a(uip-packetqueue)
                              build/cooja/mtype742.a(uip-ds6-nbr.o) (uip_packetqueue_new)
build/cooja/mtype742.a(uip-udp-packet.)
                              build/cooja/mtype742.a(simple-udp.o) (uip_udp_packet_sendto)
build/cooja/mtype742.a(rpl-icmp6.o)
                              build/cooja/mtype742.a(rpl-dag.o) (rpl_icmp6_update_nbr_table)
build/cooja/mtype742.a(rpl-neighbor.o)
                              build/cooja/mtype742.a(rpl-dag.o) (rpl_neighbors)
build/cooja/mtype742.a(rpl-timers.o)
                              build/cooja/mtype742.a(rpl-dag.o) (rpl_timers_schedule_periodic_dis)
build/cooja/mtype742.a(rpl-ext-header.)
                              build/cooja/mtype742.a(rpl.o) (rpl_ext_header_srh_get_next_hop)
build/cooja/mtype742.a(rpl-nbr-policy.)
                              build/cooja/mtype742.a(nbr-table.o) (rpl_nbr_gc_get_worst)
build/cooja/mtype742.a(rpl-mrhof.o)
                              build/cooja/mtype742.a(rpl-dag.o) (rpl_mrhof)

Merging program properties


As-needed library included to satisfy reference by file (symbol)

libc.so.6                     build/cooja/mtype742.a(random.o) (srand@@GLIBC_2.2.5)

Allocating common symbols
Common symbol       size              file

simButtonIsDown     0x1               build/cooja/mtype742.a(buttons.o)
simOutDataBuffer    0x7d              build/cooja/mtype742.a(cooja-radio.o)
uip_ds6_prefix_list
                    0x60              build/cooja/mtype742.a(uip-ds6.o)
linkaddr_node_addr  0x8               build/cooja/mtype742.a(linkaddr.o)
simSerialReceivingFlag
                    0x1               build/cooja/mtype742.a(rs232.o)
simEEPROMData       0x400             build/cooja/mtype742.a(eeprom.o)
periodic_timer      0x40              build/cooja/mtype742.a(link-stats.o)
simLoggedLength     0x4               build/cooja/mtype742.a(cooja-log.o)
simSerialReceivingLength
                    0x4               build/cooja/mtype742.a(rs232.o)
simEtimerPending    0x4               build/cooja/mtype742.a(simEnvChange.o)
uip_slen            0x2               build/cooja/mtype742.a(uip6.o)
uip_ds6_timer_periodic
                    0x20              build/cooja/mtype742.a(uip-ds6.o)
simVibChanged       0x1               build/cooja/mtype742.a(vib-sensor.o)
simRtimerPending    0x4               build/cooja/mtype742.a(rtimer-arch.o)
button_hal_periodic_event
                    0x1               build/cooja/mtype742.a(button-hal.o)
uip_ds6_netif_addr_list_offset
                    0x1               build/cooja/mtype742.a(uip-ds6.o)
uip_lladdr          0x8               build/cooja/mtype742.a(uip6.o)
button_hal_press_event
                    0x1               build/cooja/mtype742.a(button-hal.o)
simProcessRunValue  0x4               build/cooja/mtype742.a(simEnvChange.o)
file_img_6          0x7a120           build/cooja/mtype742.a(cfs-cooja.o)
file_img_2          0x7a120           build/cooja/mtype742.a(cfs-cooja.o)
file_img_4          0x7a120           build/cooja/mtype742.a(cfs-cooja.o)
file_img_8          0x7a120           build/cooja/mtype742.a(cfs-cooja.o)
serial_line_event_message
                    0x1               build/cooja/mtype742.a(serial-line.o)
uip_appdata         0x8               build/cooja/mtype742.a(uip6.o)
referenceVar        0x8               build/cooja/mtype742.o
simCurrentTime      0x8               build/cooja/mtype742.a(clock.o)
simVibIsActive      0x1               build/cooja/mtype742.a(vib-sensor.o)
uip_ds6_if          0x138             build/cooja/mtype742.a(uip-ds6.o)
uip_flags           0x1               build/cooja/mtype742.a(uip6.o)
uip_ds6_timer_ra    0x10              build/cooja/mtype742.a(uip-ds6.o)
file_img_0          0x7a120           build/cooja/mtype742.a(cfs-cooja.o)
simSerialReceivingData
                    0x800             build/cooja/mtype742.a(rs232.o)
simLoggedFlag       0x1               build/cooja/mtype742.a(cooja-log.o)
packetbuf_attrs     0x1a              build/cooja/mtype742.a(packetbuf.o)
uip_ds6_addr_size   0x1               build/cooja/mtype742.a(uip-ds6.o)
uip_aligned_buf     0x500             build/cooja/mtype742.a(uip6.o)
simRtimerCurrentTicks
                    0x8               build/cooja/mtype742.a(rtimer-arch.o)
simRandomSeed       0x4               build/cooja/mtype742.a(moteid.o)
rpl_multicast_addr  0x10              build/cooja/mtype742.a(rpl.o)
simLoggedData       0x2000            build/cooja/mtype742.a(cooja-log.o)
simEtimerNextExpirationTime
                    0x8               build/cooja/mtype742.a(simEnvChange.o)
uip_len             0x2               build/cooja/mtype742.a(uip6.o)
simButtonChanged    0x1               build/cooja/mtype742.a(buttons.o)
simRtimerNextExpirationTime
                    0x8               build/cooja/mtype742.a(rtimer-arch.o)
simPirIsActive      0x1               build/cooja/mtype742.a(pir-sensor.o)
simInDataBuffer     0x7d              build/cooja/mtype742.a(cooja-radio.o)
simPirChanged       0x1               build/cooja/mtype742.a(pir-sensor.o)
simBeeped           0x1               build/cooja/mtype742.a(beep.o)
tcpip_event         0x1               build/cooja/mtype742.a(tcpip.o)
uip_sappdata        0x8               build/cooja/mtype742.a(uip6.o)
sensors_event       0x1               build/cooja/mtype742.a(sensors.o)
file_img_3          0x7a120           build/cooja/mtype742.a(cfs-cooja.o)
file_img_7          0x7a120           build/cooja/mtype742.a(cfs-cooja.o)
file_img_5          0x7a120           build/cooja/mtype742.a(cfs-cooja.o)
file_img_9          0x7a120           build/cooja/mtype742.a(cfs-cooja.o)
uip_udp_conns       0x140             build/cooja/mtype742.a(uip6.o)
button_hal_release_event
                    0x1               build/cooja/mtype742.a(button-hal.o)
packetbuf_addrs     0x10              build/cooja/mtype742.a(packetbuf.o)
uip_udp_conn        0x8               build/cooja/mtype742.a(uip6.o)
simMoteIDChanged    0x1               build/cooja/mtype742.a(moteid.o)
sensors_flags       0x4               build/cooja/mtype742.o
file_img_1          0x7a120           build/cooja/mtype742.a(cfs-cooja.o)
curr_instance       0x260             build/cooja/mtype742.a(rpl-dag.o)
simMoteID           0x4               build/cooja/mtype742.a(moteid.o)
uip_conn            0x8               build/cooja/mtype742.a(uip6.o)

Discarded input sections

 .note.GNU-stack
                0x0000000000000000        0x0 /usr/lib/gcc/x86_64-linux-gnu/9/../../../x86_64-linux-gnu/crti.o
 .note.GNU-stack
                0x0000000000000000        0x0 /usr/lib/gcc/x86_64-linux-gnu/9/crtbeginS.o
 .note.gnu.property
                0x0000000000000000       0x20 /usr/lib/gcc/x86_64-linux-gnu/9/crtbeginS.o
 .note.GNU-stack
                0x0000000000000000        0x0 Client.o
 .note.gnu.property
                0x0000000000000000       0x20 Client.o
 .note.GNU-stack
                0x0000000000000000        0x0 build/cooja/mtype742.o
 .note.gnu.property
                0x0000000000000000       0x20 build/cooja/mtype742.o
 .note.GNU-stack
                0x0000000000000000        0x0 build/cooja/obj/TransferUDP.o
 .note.gnu.property
                0x0000000000000000       0x20 build/cooja/obj/TransferUDP.o
 .note.GNU-stack
                0x0000000000000000        0x0 build/cooja/mtype742.a(simEnvChange.o)
 .note.gnu.property
                0x0000000000000000       0x20 build/cooja/mtype742.a(simEnvChange.o)
 .note.GNU-stack
                0x0000000000000000        0x0 build/cooja/mtype742.a(cooja_mt.o)
 .note.gnu.property
                0x0000000000000000       0x20 build/cooja/mtype742.a(cooja_mt.o)
 .note.GNU-stack
                0x0000000000000000        0x0 build/cooja/mtype742.a(cooja_mtarch.o)
 .note.gnu.property
                0x0000000000000000       0x20 build/cooja/mtype742.a(cooja_mtarch.o)
 .note.GNU-stack
                0x0000000000000000        0x0 build/cooja/mtype742.a(rtimer-arch.o)
 .note.gnu.property
                0x0000000000000000       0x20 build/cooja/mtype742.a(rtimer-arch.o)
 .note.GNU-stack
                0x0000000000000000        0x0 build/cooja/mtype742.a(beep.o)
 .note.gnu.property
                0x0000000000000000       0x20 build/cooja/mtype742.a(beep.o)
 .note.GNU-stack
                0x0000000000000000        0x0 build/cooja/mtype742.a(leds-arch.o)
 .note.gnu.property
                0x0000000000000000       0x20 build/cooja/mtype742.a(leds-arch.o)
 .note.GNU-stack
                0x0000000000000000        0x0 build/cooja/mtype742.a(moteid.o)
 .note.gnu.property
                0x0000000000000000       0x20 build/cooja/mtype742.a(moteid.o)
 .note.GNU-stack
                0x0000000000000000        0x0 build/cooja/mtype742.a(pir-sensor.o)
 .note.gnu.property
                0x0000000000000000       0x20 build/cooja/mtype742.a(pir-sensor.o)
 .note.GNU-stack
                0x0000000000000000        0x0 build/cooja/mtype742.a(rs232.o)
 .note.gnu.property
                0x0000000000000000       0x20 build/cooja/mtype742.a(rs232.o)
 .note.GNU-stack
                0x0000000000000000        0x0 build/cooja/mtype742.a(vib-sensor.o)
 .note.gnu.property
                0x0000000000000000       0x20 build/cooja/mtype742.a(vib-sensor.o)
 .note.GNU-stack
                0x0000000000000000        0x0 build/cooja/mtype742.a(clock.o)
 .note.gnu.property
                0x0000000000000000       0x20 build/cooja/mtype742.a(clock.o)
 .note.GNU-stack
                0x0000000000000000        0x0 build/cooja/mtype742.a(cooja-log.o)
 .note.gnu.property
                0x0000000000000000       0x20 build/cooja/mtype742.a(cooja-log.o)
 .note.GNU-stack
                0x0000000000000000        0x0 build/cooja/mtype742.a(cfs-cooja.o)
 .note.gnu.property
                0x0000000000000000       0x20 build/cooja/mtype742.a(cfs-cooja.o)
 .note.GNU-stack
                0x0000000000000000        0x0 build/cooja/mtype742.a(cooja-radio.o)
 .note.gnu.property
                0x0000000000000000       0x20 build/cooja/mtype742.a(cooja-radio.o)
 .note.GNU-stack
                0x0000000000000000        0x0 build/cooja/mtype742.a(eeprom.o)
 .note.gnu.property
                0x0000000000000000       0x20 build/cooja/mtype742.a(eeprom.o)
 .note.GNU-stack
                0x0000000000000000        0x0 build/cooja/mtype742.a(random.o)
 .note.gnu.property
                0x0000000000000000       0x20 build/cooja/mtype742.a(random.o)
 .note.GNU-stack
                0x0000000000000000        0x0 build/cooja/mtype742.a(sensors.o)
 .note.gnu.property
                0x0000000000000000       0x20 build/cooja/mtype742.a(sensors.o)
 .note.GNU-stack
                0x0000000000000000        0x0 build/cooja/mtype742.a(leds.o)
 .note.gnu.property
                0x0000000000000000       0x20 build/cooja/mtype742.a(leds.o)
 .note.GNU-stack
                0x0000000000000000        0x0 build/cooja/mtype742.a(gpio-hal-arch.o)
 .note.gnu.property
                0x0000000000000000       0x20 build/cooja/mtype742.a(gpio-hal-arch.o)
 .note.GNU-stack
                0x0000000000000000        0x0 build/cooja/mtype742.a(buttons.o)
 .note.gnu.property
                0x0000000000000000       0x20 build/cooja/mtype742.a(buttons.o)
 .note.GNU-stack
                0x0000000000000000        0x0 build/cooja/mtype742.a(contiki-main.o)
 .note.gnu.property
                0x0000000000000000       0x20 build/cooja/mtype742.a(contiki-main.o)
 .note.GNU-stack
                0x0000000000000000        0x0 build/cooja/mtype742.a(autostart.o)
 .note.gnu.property
                0x0000000000000000       0x20 build/cooja/mtype742.a(autostart.o)
 .note.GNU-stack
                0x0000000000000000        0x0 build/cooja/mtype742.a(ctimer.o)
 .note.gnu.property
                0x0000000000000000       0x20 build/cooja/mtype742.a(ctimer.o)
 .note.GNU-stack
                0x0000000000000000        0x0 build/cooja/mtype742.a(log.o)
 .note.gnu.property
                0x0000000000000000       0x20 build/cooja/mtype742.a(log.o)
 .note.GNU-stack
                0x0000000000000000        0x0 build/cooja/mtype742.a(energest.o)
 .note.gnu.property
                0x0000000000000000       0x20 build/cooja/mtype742.a(energest.o)
 .note.GNU-stack
                0x0000000000000000        0x0 build/cooja/mtype742.a(etimer.o)
 .note.gnu.property
                0x0000000000000000       0x20 build/cooja/mtype742.a(etimer.o)
 .note.GNU-stack
                0x0000000000000000        0x0 build/cooja/mtype742.a(node-id.o)
 .note.gnu.property
                0x0000000000000000       0x20 build/cooja/mtype742.a(node-id.o)
 .note.GNU-stack
                0x0000000000000000        0x0 build/cooja/mtype742.a(rtimer.o)
 .note.gnu.property
                0x0000000000000000       0x20 build/cooja/mtype742.a(rtimer.o)
 .note.GNU-stack
                0x0000000000000000        0x0 build/cooja/mtype742.a(process.o)
 .note.gnu.property
                0x0000000000000000       0x20 build/cooja/mtype742.a(process.o)
 .note.GNU-stack
                0x0000000000000000        0x0 build/cooja/mtype742.a(timer.o)
 .note.gnu.property
                0x0000000000000000       0x20 build/cooja/mtype742.a(timer.o)
 .note.GNU-stack
                0x0000000000000000        0x0 build/cooja/mtype742.a(list.o)
 .note.gnu.property
                0x0000000000000000       0x20 build/cooja/mtype742.a(list.o)
 .note.GNU-stack
                0x0000000000000000        0x0 build/cooja/mtype742.a(button-hal.o)
 .note.gnu.property
                0x0000000000000000       0x20 build/cooja/mtype742.a(button-hal.o)
 .note.GNU-stack
                0x0000000000000000        0x0 build/cooja/mtype742.a(serial-line.o)
 .note.gnu.property
                0x0000000000000000       0x20 build/cooja/mtype742.a(serial-line.o)
 .note.GNU-stack
                0x0000000000000000        0x0 build/cooja/mtype742.a(gpio-hal.o)
 .note.gnu.property
                0x0000000000000000       0x20 build/cooja/mtype742.a(gpio-hal.o)
 .note.GNU-stack
                0x0000000000000000        0x0 build/cooja/mtype742.a(queuebuf.o)
 .note.gnu.property
                0x0000000000000000       0x20 build/cooja/mtype742.a(queuebuf.o)
 .note.GNU-stack
                0x0000000000000000        0x0 build/cooja/mtype742.a(packetbuf.o)
 .note.gnu.property
                0x0000000000000000       0x20 build/cooja/mtype742.a(packetbuf.o)
 .note.GNU-stack
                0x0000000000000000        0x0 build/cooja/mtype742.a(netstack.o)
 .note.gnu.property
                0x0000000000000000       0x20 build/cooja/mtype742.a(netstack.o)
 .note.GNU-stack
                0x0000000000000000        0x0 build/cooja/mtype742.a(linkaddr.o)
 .note.gnu.property
                0x0000000000000000       0x20 build/cooja/mtype742.a(linkaddr.o)
 .note.GNU-stack
                0x0000000000000000        0x0 build/cooja/mtype742.a(csma.o)
 .note.gnu.property
                0x0000000000000000       0x20 build/cooja/mtype742.a(csma.o)
 .note.GNU-stack
                0x0000000000000000        0x0 build/cooja/mtype742.a(csma-output.o)
 .note.gnu.property
                0x0000000000000000       0x20 build/cooja/mtype742.a(csma-output.o)
 .note.GNU-stack
                0x0000000000000000        0x0 build/cooja/mtype742.a(uip-ds6.o)
 .note.gnu.property
                0x0000000000000000       0x20 build/cooja/mtype742.a(uip-ds6.o)
 .note.GNU-stack
                0x0000000000000000        0x0 build/cooja/mtype742.a(uiplib.o)
 .note.gnu.property
                0x0000000000000000       0x20 build/cooja/mtype742.a(uiplib.o)
 .note.GNU-stack
                0x0000000000000000        0x0 build/cooja/mtype742.a(tcpip.o)
 .note.gnu.property
                0x0000000000000000       0x20 build/cooja/mtype742.a(tcpip.o)
 .note.GNU-stack
                0x0000000000000000        0x0 build/cooja/mtype742.a(uip-ds6-route.o)
 .note.gnu.property
                0x0000000000000000       0x20 build/cooja/mtype742.a(uip-ds6-route.o)
 .note.GNU-stack
                0x0000000000000000        0x0 build/cooja/mtype742.a(uip-ds6-nbr.o)
 .note.gnu.property
                0x0000000000000000       0x20 build/cooja/mtype742.a(uip-ds6-nbr.o)
 .note.GNU-stack
                0x0000000000000000        0x0 build/cooja/mtype742.a(uip6.o)
 .note.gnu.property
                0x0000000000000000       0x20 build/cooja/mtype742.a(uip6.o)
 .note.GNU-stack
                0x0000000000000000        0x0 build/cooja/mtype742.a(uip-nd6.o)
 .note.gnu.property
                0x0000000000000000       0x20 build/cooja/mtype742.a(uip-nd6.o)
 .note.GNU-stack
                0x0000000000000000        0x0 build/cooja/mtype742.a(simple-udp.o)
 .note.gnu.property
                0x0000000000000000       0x20 build/cooja/mtype742.a(simple-udp.o)
 .note.GNU-stack
                0x0000000000000000        0x0 build/cooja/mtype742.a(sicslowpan.o)
 .note.gnu.property
                0x0000000000000000       0x20 build/cooja/mtype742.a(sicslowpan.o)
 .note.GNU-stack
                0x0000000000000000        0x0 build/cooja/mtype742.a(rpl.o)
 .note.gnu.property
                0x0000000000000000       0x20 build/cooja/mtype742.a(rpl.o)
 .note.GNU-stack
                0x0000000000000000        0x0 build/cooja/mtype742.a(rpl-dag.o)
 .note.gnu.property
                0x0000000000000000       0x20 build/cooja/mtype742.a(rpl-dag.o)
 .note.GNU-stack
                0x0000000000000000        0x0 build/cooja/mtype742.a(rpl-dag-root.o)
 .note.gnu.property
                0x0000000000000000       0x20 build/cooja/mtype742.a(rpl-dag-root.o)
 .note.GNU-stack
                0x0000000000000000        0x0 build/cooja/mtype742.a(watchdog.o)
 .note.gnu.property
                0x0000000000000000       0x20 build/cooja/mtype742.a(watchdog.o)
 .note.GNU-stack
                0x0000000000000000        0x0 build/cooja/mtype742.a(int-master.o)
 .note.gnu.property
                0x0000000000000000       0x20 build/cooja/mtype742.a(int-master.o)
 .note.GNU-stack
                0x0000000000000000        0x0 build/cooja/mtype742.a(stimer.o)
 .note.gnu.property
                0x0000000000000000       0x20 build/cooja/mtype742.a(stimer.o)
 .note.GNU-stack
                0x0000000000000000        0x0 build/cooja/mtype742.a(memb.o)
 .note.gnu.property
                0x0000000000000000       0x20 build/cooja/mtype742.a(memb.o)
 .note.GNU-stack
                0x0000000000000000        0x0 build/cooja/mtype742.a(assert.o)
 .note.gnu.property
                0x0000000000000000       0x20 build/cooja/mtype742.a(assert.o)
 .note.GNU-stack
                0x0000000000000000        0x0 build/cooja/mtype742.a(ringbuf.o)
 .note.gnu.property
                0x0000000000000000       0x20 build/cooja/mtype742.a(ringbuf.o)
 .note.GNU-stack
                0x0000000000000000        0x0 build/cooja/mtype742.a(nbr-table.o)
 .note.gnu.property
                0x0000000000000000       0x20 build/cooja/mtype742.a(nbr-table.o)
 .note.GNU-stack
                0x0000000000000000        0x0 build/cooja/mtype742.a(link-stats.o)
 .note.gnu.property
                0x0000000000000000       0x20 build/cooja/mtype742.a(link-stats.o)
 .note.GNU-stack
                0x0000000000000000        0x0 build/cooja/mtype742.a(mac-sequence.o)
 .note.gnu.property
                0x0000000000000000       0x20 build/cooja/mtype742.a(mac-sequence.o)
 .note.GNU-stack
                0x0000000000000000        0x0 build/cooja/mtype742.a(mac.o)
 .note.gnu.property
                0x0000000000000000       0x20 build/cooja/mtype742.a(mac.o)
 .note.GNU-stack
                0x0000000000000000        0x0 build/cooja/mtype742.a(framer-802154.o)
 .note.gnu.property
                0x0000000000000000       0x20 build/cooja/mtype742.a(framer-802154.o)
 .note.GNU-stack
                0x0000000000000000        0x0 build/cooja/mtype742.a(frame802154.o)
 .note.gnu.property
                0x0000000000000000       0x20 build/cooja/mtype742.a(frame802154.o)
 .note.GNU-stack
                0x0000000000000000        0x0 build/cooja/mtype742.a(csma-security.o)
 .note.gnu.property
                0x0000000000000000       0x20 build/cooja/mtype742.a(csma-security.o)
 .note.GNU-stack
                0x0000000000000000        0x0 build/cooja/mtype742.a(uipbuf.o)
 .note.gnu.property
                0x0000000000000000       0x20 build/cooja/mtype742.a(uipbuf.o)
 .note.GNU-stack
                0x0000000000000000        0x0 build/cooja/mtype742.a(uip-icmp6.o)
 .note.gnu.property
                0x0000000000000000       0x20 build/cooja/mtype742.a(uip-icmp6.o)
 .note.GNU-stack
                0x0000000000000000        0x0 build/cooja/mtype742.a(uip-sr.o)
 .note.gnu.property
                0x0000000000000000       0x20 build/cooja/mtype742.a(uip-sr.o)
 .note.GNU-stack
                0x0000000000000000        0x0 build/cooja/mtype742.a(uip-packetqueue)
 .note.gnu.property
                0x0000000000000000       0x20 build/cooja/mtype742.a(uip-packetqueue)
 .note.GNU-stack
                0x0000000000000000        0x0 build/cooja/mtype742.a(uip-udp-packet.)
 .note.gnu.property
                0x0000000000000000       0x20 build/cooja/mtype742.a(uip-udp-packet.)
 .note.GNU-stack
                0x0000000000000000        0x0 build/cooja/mtype742.a(rpl-icmp6.o)
 .note.gnu.property
                0x0000000000000000       0x20 build/cooja/mtype742.a(rpl-icmp6.o)
 .note.GNU-stack
                0x0000000000000000        0x0 build/cooja/mtype742.a(rpl-neighbor.o)
 .note.gnu.property
                0x0000000000000000       0x20 build/cooja/mtype742.a(rpl-neighbor.o)
 .note.GNU-stack
                0x0000000000000000        0x0 build/cooja/mtype742.a(rpl-timers.o)
 .note.gnu.property
                0x0000000000000000       0x20 build/cooja/mtype742.a(rpl-timers.o)
 .note.GNU-stack
                0x0000000000000000        0x0 build/cooja/mtype742.a(rpl-ext-header.)
 .note.gnu.property
                0x0000000000000000       0x20 build/cooja/mtype742.a(rpl-ext-header.)
 .note.GNU-stack
                0x0000000000000000        0x0 build/cooja/mtype742.a(rpl-nbr-policy.)
 .note.gnu.property
                0x0000000000000000       0x20 build/cooja/mtype742.a(rpl-nbr-policy.)
 .note.GNU-stack
                0x0000000000000000        0x0 build/cooja/mtype742.a(rpl-mrhof.o)
 .note.gnu.property
                0x0000000000000000       0x20 build/cooja/mtype742.a(rpl-mrhof.o)
 .note.GNU-stack
                0x0000000000000000        0x0 /usr/lib/gcc/x86_64-linux-gnu/9/crtendS.o
 .note.gnu.property
                0x0000000000000000       0x20 /usr/lib/gcc/x86_64-linux-gnu/9/crtendS.o
 .note.gnu.property
                0x0000000000000000       0x20 /usr/lib/gcc/x86_64-linux-gnu/9/../../../x86_64-linux-gnu/crtn.o
 .note.GNU-stack
                0x0000000000000000        0x0 /usr/lib/gcc/x86_64-linux-gnu/9/../../../x86_64-linux-gnu/crtn.o

Memory Configuration

Name             Origin             Length             Attributes
*default*        0x0000000000000000 0xffffffffffffffff

Linker script and memory map

LOAD /usr/lib/gcc/x86_64-linux-gnu/9/../../../x86_64-linux-gnu/crti.o
LOAD /usr/lib/gcc/x86_64-linux-gnu/9/crtbeginS.o
LOAD Client.o
LOAD build/cooja/mtype742.o
LOAD build/cooja/obj/TransferUDP.o
LOAD build/cooja/mtype742.a
LOAD /usr/lib/gcc/x86_64-linux-gnu/9/libgcc.a
LOAD /usr/lib/gcc/x86_64-linux-gnu/9/libgcc_s.so
START GROUP
LOAD /lib/x86_64-linux-gnu/libgcc_s.so.1
LOAD /usr/lib/gcc/x86_64-linux-gnu/9/libgcc.a
END GROUP
LOAD /usr/lib/gcc/x86_64-linux-gnu/9/../../../x86_64-linux-gnu/libc.so
START GROUP
LOAD /lib/x86_64-linux-gnu/libc.so.6
LOAD /usr/lib/x86_64-linux-gnu/libc_nonshared.a
LOAD /lib/x86_64-linux-gnu/ld-linux-x86-64.so.2
END GROUP
LOAD /usr/lib/gcc/x86_64-linux-gnu/9/libgcc.a
LOAD /usr/lib/gcc/x86_64-linux-gnu/9/libgcc_s.so
START GROUP
LOAD /lib/x86_64-linux-gnu/libgcc_s.so.1
LOAD /usr/lib/gcc/x86_64-linux-gnu/9/libgcc.a
END GROUP
LOAD /usr/lib/gcc/x86_64-linux-gnu/9/crtendS.o
LOAD /usr/lib/gcc/x86_64-linux-gnu/9/../../../x86_64-linux-gnu/crtn.o
                0x00000000000002a8                . = (SEGMENT_START ("text-segment", 0x0) + SIZEOF_HEADERS)

.note.gnu.property
                0x00000000000002a8       0x20
 .note.gnu.property
                0x00000000000002a8       0x20 /usr/lib/gcc/x86_64-linux-gnu/9/../../../x86_64-linux-gnu/crti.o

.note.gnu.build-id
                0x00000000000002c8       0x24
 *(.note.gnu.build-id)
 .note.gnu.build-id
                0x00000000000002c8       0x24 /usr/lib/gcc/x86_64-linux-gnu/9/../../../x86_64-linux-gnu/crti.o

.hash
 *(.hash)

.gnu.hash       0x00000000000002f0     0x1488
 *(.gnu.hash)
 .gnu.hash      0x00000000000002f0     0x1488 /usr/lib/gcc/x86_64-linux-gnu/9/../../../x86_64-linux-gnu/crti.o

.dynsym         0x0000000000001778     0x3fc0
 *(.dynsym)
 .dynsym        0x0000000000001778     0x3fc0 /usr/lib/gcc/x86_64-linux-gnu/9/../../../x86_64-linux-gnu/crti.o

.dynstr         0x0000000000005738     0x2fed
 *(.dynstr)
 .dynstr        0x0000000000005738     0x2fed /usr/lib/gcc/x86_64-linux-gnu/9/../../../x86_64-linux-gnu/crti.o

.gnu.version    0x0000000000008726      0x550
 *(.gnu.version)
 .gnu.version   0x0000000000008726      0x550 /usr/lib/gcc/x86_64-linux-gnu/9/../../../x86_64-linux-gnu/crti.o

.gnu.version_d  0x0000000000008c78        0x0
 *(.gnu.version_d)
 .gnu.version_d
                0x0000000000008c78        0x0 /usr/lib/gcc/x86_64-linux-gnu/9/../../../x86_64-linux-gnu/crti.o

.gnu.version_r  0x0000000000008c78       0x40
 *(.gnu.version_r)
 .gnu.version_r
                0x0000000000008c78       0x40 /usr/lib/gcc/x86_64-linux-gnu/9/../../../x86_64-linux-gnu/crti.o

.rela.dyn       0x0000000000008cb8     0x1de8
 *(.rela.init)
 *(.rela.text .rela.text.* .rela.gnu.linkonce.t.*)
 .rela.text     0x0000000000008cb8        0x0 /usr/lib/gcc/x86_64-linux-gnu/9/../../../x86_64-linux-gnu/crti.o
 *(.rela.fini)
 *(.rela.rodata .rela.rodata.* .rela.gnu.linkonce.r.*)
 *(.rela.data .rela.data.* .rela.gnu.linkonce.d.*)
 .rela.data.rel.local
                0x0000000000008cb8      0x690 /usr/lib/gcc/x86_64-linux-gnu/9/../../../x86_64-linux-gnu/crti.o
 .rela.data.rel.ro
                0x0000000000009348      0x288 /usr/lib/gcc/x86_64-linux-gnu/9/../../../x86_64-linux-gnu/crti.o
 .rela.data.rel
                0x00000000000095d0      0x3a8 /usr/lib/gcc/x86_64-linux-gnu/9/../../../x86_64-linux-gnu/crti.o
 .rela.data.rel.ro.local
                0x0000000000009978      0x5a0 /usr/lib/gcc/x86_64-linux-gnu/9/../../../x86_64-linux-gnu/crti.o
 *(.rela.tdata .rela.tdata.* .rela.gnu.linkonce.td.*)
 *(.rela.tbss .rela.tbss.* .rela.gnu.linkonce.tb.*)
 *(.rela.ctors)
 *(.rela.dtors)
 *(.rela.got)
 .rela.got      0x0000000000009f18      0xb58 /usr/lib/gcc/x86_64-linux-gnu/9/../../../x86_64-linux-gnu/crti.o
 *(.rela.bss .rela.bss.* .rela.gnu.linkonce.b.*)
 *(.rela.ldata .rela.ldata.* .rela.gnu.linkonce.l.*)
 *(.rela.lbss .rela.lbss.* .rela.gnu.linkonce.lb.*)
 *(.rela.lrodata .rela.lrodata.* .rela.gnu.linkonce.lr.*)
 *(.rela.ifunc)
 .rela.ifunc    0x000000000000aa70        0x0 /usr/lib/gcc/x86_64-linux-gnu/9/../../../x86_64-linux-gnu/crti.o
 .rela.fini_array
                0x000000000000aa70       0x18 /usr/lib/gcc/x86_64-linux-gnu/9/../../../x86_64-linux-gnu/crti.o
 .rela.init_array
                0x000000000000aa88       0x18 /usr/lib/gcc/x86_64-linux-gnu/9/../../../x86_64-linux-gnu/crti.o

.rela.plt       0x000000000000aaa0     0x2028
 *(.rela.plt)
 .rela.plt      0x000000000000aaa0     0x2028 /usr/lib/gcc/x86_64-linux-gnu/9/../../../x86_64-linux-gnu/crti.o
 *(.rela.iplt)
                0x000000000000d000                . = ALIGN (CONSTANT (MAXPAGESIZE))

.init           0x000000000000d000       0x1b
 *(SORT_NONE(.init))
 .init          0x000000000000d000       0x16 /usr/lib/gcc/x86_64-linux-gnu/9/../../../x86_64-linux-gnu/crti.o
                0x000000000000d000                _init
 .init          0x000000000000d016        0x5 /usr/lib/gcc/x86_64-linux-gnu/9/../../../x86_64-linux-gnu/crtn.o

.plt            0x000000000000d020     0x1580
 *(.plt)
 .plt           0x000000000000d020     0x1580 /usr/lib/gcc/x86_64-linux-gnu/9/../../../x86_64-linux-gnu/crti.o
 *(.iplt)

.plt.got        0x000000000000e5a0       0x30
 *(.plt.got)
 .plt.got       0x000000000000e5a0       0x30 /usr/lib/gcc/x86_64-linux-gnu/9/../../../x86_64-linux-gnu/crti.o

.plt.sec        0x000000000000e5d0     0x1570
 *(.plt.sec)
 .plt.sec       0x000000000000e5d0     0x1570 /usr/lib/gcc/x86_64-linux-gnu/9/../../../x86_64-linux-gnu/crti.o

.text           0x000000000000fb40    0x189f3
 *(.text.unlikely .text.*_unlikely .text.unlikely.*)
 *(.text.exit .text.exit.*)
 *(.text.startup .text.startup.*)
 *(.text.hot .text.hot.*)
 *(SORT_BY_NAME(.text.sorted.*))
 *(.text .stub .text.* .gnu.linkonce.t.*)
 .text          0x000000000000fb40        0x0 /usr/lib/gcc/x86_64-linux-gnu/9/../../../x86_64-linux-gnu/crti.o
 .text          0x000000000000fb40       0xb9 /usr/lib/gcc/x86_64-linux-gnu/9/crtbeginS.o
 .text          0x000000000000fbf9      0x11a Client.o
 .text          0x000000000000fd13      0x384 build/cooja/mtype742.o
                0x000000000000fdc4                platform_init_stage_one
                0x000000000000fdd9                platform_init_stage_two
                0x000000000000fdee                platform_init_stage_three
                0x000000000000fe03                platform_main_loop
                0x000000000000fe9d                Java_org_contikios_cooja_corecomm_Lib2_init
                0x000000000000fee4                Java_org_contikios_cooja_corecomm_Lib2_getMemory
                0x000000000000ff44                Java_org_contikios_cooja_corecomm_Lib2_setMemory
                0x000000000000ffdd                Java_org_contikios_cooja_corecomm_Lib2_tick
                0x0000000000010065                Java_org_contikios_cooja_corecomm_Lib2_setReferenceAddress
 .text          0x0000000000010097      0x1c2 build/cooja/obj/TransferUDP.o
                0x0000000000010097                tTransferUDP_send
                0x00000000000101b3                tTransferUDP_register
                0x00000000000101f5                tTransferUDP_create
                0x0000000000010233                tTransferUDP_destroy
 .text          0x0000000000010259       0x93 build/cooja/mtype742.a(simEnvChange.o)
                0x0000000000010259                doActionsBeforeTick
                0x00000000000102a2                doActionsAfterTick
 .text          0x00000000000102ec       0xab build/cooja/mtype742.a(cooja_mt.o)
                0x00000000000102ec                cooja_mt_start
                0x000000000001032c                cooja_mt_exec
                0x000000000001036f                cooja_mt_yield
 .text          0x0000000000010397      0x10e build/cooja/mtype742.a(cooja_mtarch.o)
                0x0000000000010397                cooja_mtarch_start
                0x000000000001043a                cooja_sw
                0x0000000000010467                cooja_mtarch_exec
                0x0000000000010495                cooja_mtarch_yield
 .text          0x00000000000104a5       0xcc build/cooja/mtype742.a(rtimer-arch.o)
                0x00000000000104a5                rtimer_arch_init
                0x00000000000104cb                rtimer_arch_schedule
                0x00000000000104f5                rtimer_arch_next
                0x0000000000010509                rtimer_arch_pending
                0x000000000001051c                rtimer_arch_check
                0x000000000001055d                rtimer_arch_now
 .text          0x0000000000010571       0xe6 build/cooja/mtype742.a(beep.o)
                0x0000000000010571                beep_alarm
                0x000000000001058c                beep_beep
                0x00000000000105a4                beep
                0x00000000000105b9                beep_down
                0x00000000000105d1                beep_on
                0x00000000000105e6                beep_off
                0x00000000000105fb                beep_spinup
                0x0000000000010610                beep_quick
                0x0000000000010628                beep_long
 .text          0x0000000000010657       0x77 build/cooja/mtype742.a(leds-arch.o)
                0x0000000000010670                leds_arch_init
 .text          0x00000000000106ce       0x41 build/cooja/mtype742.a(moteid.o)
 .text          0x000000000001070f       0xfa build/cooja/mtype742.a(pir-sensor.o)
 .text          0x0000000000010809      0x194 build/cooja/mtype742.a(rs232.o)
                0x0000000000010809                rs232_init
                0x0000000000010814                rs232_set_speed
                0x0000000000010824                rs232_set_input
                0x000000000001083e                rs232_send
                0x0000000000010869                rs232_print
                0x0000000000010894                slip_arch_writeb
 .text          0x000000000001099d       0xfa build/cooja/mtype742.a(vib-sensor.o)
 .text          0x0000000000010a97       0x6f build/cooja/mtype742.a(clock.o)
                0x0000000000010a97                clock_init
                0x0000000000010aa2                clock_time
                0x0000000000010ab6                clock_seconds
                0x0000000000010ae2                clock_delay
 .text          0x0000000000010b06      0x32a build/cooja/mtype742.a(cooja-log.o)
                0x0000000000010b06                simlog_char
                0x0000000000010b60                simlog
                0x0000000000010bff                log_message
                0x0000000000010c44                log_set_putchar_with_slip
                0x0000000000010c5b                log_putchar
                0x0000000000010cdf                log_puts
                0x0000000000010d0c                log_printf
 .text          0x0000000000010e30      0x39f build/cooja/mtype742.a(cfs-cooja.o)
                0x0000000000010e30                cfs_open
                0x0000000000010ead                cfs_close
                0x0000000000010ec2                cfs_read
                0x0000000000010f8a                cfs_write
                0x000000000001109d                cfs_seek
                0x000000000001114c                cfs_remove
                0x000000000001117c                cfs_opendir
                0x0000000000011193                cfs_readdir
                0x00000000000111aa                cfs_closedir
 .text          0x00000000000111cf      0x7a6 build/cooja/mtype742.a(cooja-radio.o)
                0x000000000001122e                radio_set_channel
                0x0000000000011248                radio_set_txpower
                0x0000000000011265                radio_signal_strength_last
                0x0000000000011278                radio_signal_strength_current
                0x000000000001128b                radio_LQI
 .text          0x0000000000011975      0x139 build/cooja/mtype742.a(eeprom.o)
                0x0000000000011975                eeprom_init
                0x0000000000011980                eeprom_read
                0x0000000000011a0c                eeprom_write
 .text          0x0000000000011aae       0x2f build/cooja/mtype742.a(random.o)
                0x0000000000011aae                random_init
                0x0000000000011ace                random_rand
 .text          0x0000000000011add      0x35f build/cooja/mtype742.a(sensors.o)
                0x0000000000011b26                sensors_first
                0x0000000000011b3a                sensors_next
                0x0000000000011b69                sensors_changed
                0x0000000000011bb6                sensors_find
 .text          0x0000000000011e3c      0x3ad build/cooja/mtype742.a(leds.o)
                0x0000000000011e3c                leds_init
                0x0000000000011e87                leds_single_on
                0x0000000000011ef4                leds_single_off
                0x0000000000011f61                leds_single_toggle
                0x0000000000011f99                leds_on
                0x000000000001202a                leds_off
                0x00000000000120bb                leds_toggle
                0x0000000000012117                leds_set
                0x0000000000012140                leds_get
 .text          0x00000000000121e9      0x412 build/cooja/mtype742.a(gpio-hal-arch.o)
                0x00000000000121e9                gpio_hal_arch_register_pin_callback
                0x0000000000012290                gpio_hal_arch_init
                0x00000000000122dd                gpio_hal_arch_no_port_interrupt_enable
                0x000000000001232a                gpio_hal_arch_no_port_interrupt_disable
                0x0000000000012377                gpio_hal_arch_no_port_pin_cfg_set
                0x00000000000123ad                gpio_hal_arch_no_port_pin_cfg_get
                0x00000000000123e1                gpio_hal_arch_no_port_pin_set_input
                0x00000000000123f4                gpio_hal_arch_no_port_pin_set_output
                0x0000000000012407                gpio_hal_arch_no_port_set_pin
                0x000000000001242b                gpio_hal_arch_no_port_clear_pin
                0x000000000001244f                gpio_hal_arch_no_port_read_pin
                0x000000000001247c                gpio_hal_arch_no_port_write_pin
                0x00000000000124a6                gpio_hal_arch_no_port_set_pins
                0x00000000000124f5                gpio_hal_arch_no_port_clear_pins
                0x0000000000012544                gpio_hal_arch_no_port_read_pins
                0x0000000000012592                gpio_hal_arch_no_port_write_pins
 .text          0x00000000000125fb       0xa8 build/cooja/mtype742.a(buttons.o)
 .text          0x00000000000126a3      0x3a7 build/cooja/mtype742.a(contiki-main.o)
                0x00000000000126a3                main
 .text          0x0000000000012a4a       0xbd build/cooja/mtype742.a(autostart.o)
                0x0000000000012a4a                autostart_start
                0x0000000000012aab                autostart_exit
 .text          0x0000000000012b07      0x441 build/cooja/mtype742.a(ctimer.o)
                0x0000000000012c69                ctimer_init
                0x0000000000012c9e                ctimer_set
                0x0000000000012ce2                ctimer_set_with_process
                0x0000000000012d9c                ctimer_reset
                0x0000000000012e0d                ctimer_restart
                0x0000000000012e7e                ctimer_stop
                0x0000000000012edc                ctimer_expired
 .text          0x0000000000012f48      0x527 build/cooja/mtype742.a(log.o)
                0x0000000000012f48                log_6addr
                0x0000000000012fab                log_6addr_compact_snprint
                0x0000000000013086                log_6addr_compact
                0x00000000000130e9                log_lladdr
                0x000000000001316a                log_lladdr_compact
                0x00000000000131e6                log_bytes
                0x0000000000013243                log_set_level
                0x000000000001334d                log_get_level
                0x0000000000013404                log_level_to_str
 .text          0x000000000001346f       0x25 build/cooja/mtype742.a(energest.o)
                0x000000000001346f                energest_init
                0x000000000001347a                energest_flush
                0x0000000000013485                energest_get_total_time
 .text          0x0000000000013494      0x57c build/cooja/mtype742.a(etimer.o)
                0x000000000001373c                etimer_request_poll
                0x00000000000137ee                etimer_set
                0x0000000000013824                etimer_reset_with_new_interval
                0x000000000001385f                etimer_reset
                0x000000000001388a                etimer_restart
                0x00000000000138b5                etimer_adjust
                0x00000000000138e6                etimer_expired
                0x0000000000013905                etimer_expiration_time
                0x0000000000013925                etimer_start_time
                0x000000000001393a                etimer_pending
                0x0000000000013954                etimer_next_expiration_time
                0x0000000000013975                etimer_stop
 .text          0x0000000000013a10       0x36 build/cooja/mtype742.a(node-id.o)
                0x0000000000013a10                node_id_init
 .text          0x0000000000013a46      0x101 build/cooja/mtype742.a(rtimer.o)
                0x0000000000013a46                rtimer_init
                0x0000000000013a56                rtimer_set
                0x0000000000013ad7                rtimer_run_next
 .text          0x0000000000013b47      0x67a build/cooja/mtype742.a(process.o)
                0x0000000000013b47                process_alloc_event
                0x0000000000013b61                process_start
                0x0000000000013dd2                process_exit
                0x0000000000013dfe                process_init
                0x0000000000013ffb                process_run
                0x0000000000014030                process_nevents
                0x0000000000014050                process_post
                0x0000000000014118                process_post_synch
                0x0000000000014166                process_poll
                0x00000000000141a3                process_is_running
 .text          0x00000000000141c1       0xfb build/cooja/mtype742.a(timer.o)
                0x00000000000141c1                timer_set
                0x00000000000141f0                timer_reset
                0x000000000001422c                timer_restart
                0x000000000001424b                timer_expired
                0x0000000000014286                timer_remaining
 .text          0x00000000000142bc      0x39b build/cooja/mtype742.a(list.o)
                0x00000000000142bc                list_init
                0x00000000000142d6                list_head
                0x00000000000142eb                list_copy
                0x000000000001430c                list_tail
                0x0000000000014355                list_add
                0x00000000000143b9                list_push
                0x00000000000143fc                list_chop
                0x0000000000014489                list_pop
                0x00000000000144c3                list_remove
                0x000000000001454f                list_length
                0x000000000001458a                list_insert
                0x00000000000145ed                list_item_next
                0x0000000000014610                list_contains
 .text          0x0000000000014657      0x56b build/cooja/mtype742.a(button-hal.o)
                0x000000000001481c                button_hal_get_by_id
                0x000000000001486a                button_hal_get_by_index
                0x00000000000148a1                button_hal_get_state
                0x0000000000014904                button_hal_init
 .text          0x0000000000014bc2      0x229 build/cooja/mtype742.a(serial-line.o)
                0x0000000000014bc2                serial_line_input_byte
                0x0000000000014db4                serial_line_init
 .text          0x0000000000014deb      0x181 build/cooja/mtype742.a(gpio-hal.o)
                0x0000000000014deb                gpio_hal_register_handler
                0x0000000000014e14                gpio_hal_event_handler
                0x0000000000014e7f                gpio_hal_init
                0x0000000000014e9e                gpio_hal_arch_port_toggle_pin
                0x0000000000014ed5                gpio_hal_arch_port_toggle_pins
                0x0000000000014f06                gpio_hal_arch_no_port_toggle_pin
                0x0000000000014f40                gpio_hal_arch_no_port_toggle_pins
 .text          0x0000000000014f6c      0x35d build/cooja/mtype742.a(queuebuf.o)
                0x0000000000014f81                queuebuf_init
                0x0000000000014fa4                queuebuf_numfree
                0x0000000000014fba                queuebuf_new_from_packetbuf
                0x0000000000015060                queuebuf_update_attr_from_packetbuf
                0x00000000000150a3                queuebuf_update_from_packetbuf
                0x00000000000150ff                queuebuf_free
                0x0000000000015152                queuebuf_to_packetbuf
                0x00000000000151c8                queuebuf_dataptr
                0x000000000001520c                queuebuf_datalen
                0x000000000001523c                queuebuf_addr
                0x0000000000015283                queuebuf_attr
                0x00000000000152be                queuebuf_debug_print
 .text          0x00000000000152c9      0x4a9 build/cooja/mtype742.a(packetbuf.o)
                0x00000000000152c9                packetbuf_clear
                0x00000000000152f7                packetbuf_copyfrom
                0x0000000000015351                packetbuf_copyto
                0x00000000000153f8                packetbuf_hdralloc
                0x0000000000015487                packetbuf_hdrreduce
                0x00000000000154d7                packetbuf_set_datalen
                0x00000000000154f3                packetbuf_dataptr
                0x0000000000015519                packetbuf_hdrptr
                0x000000000001552a                packetbuf_datalen
                0x000000000001553b                packetbuf_hdrlen
                0x0000000000015557                packetbuf_totlen
                0x000000000001557a                packetbuf_remaininglen
                0x0000000000015592                packetbuf_attr_clear
                0x00000000000155f7                packetbuf_attr_copyto
                0x0000000000015642                packetbuf_attr_copyfrom
                0x000000000001568d                packetbuf_set_attr
                0x00000000000156bd                packetbuf_attr
                0x00000000000156de                packetbuf_set_addr
                0x0000000000015724                packetbuf_addr
                0x000000000001574e                packetbuf_holds_broadcast
 .text          0x0000000000015772      0x12b build/cooja/mtype742.a(netstack.o)
                0x0000000000015772                netstack_process_ip_callback
                0x0000000000015813                netstack_ip_packet_processor_add
                0x0000000000015843                uip_ds6_ip_packet_processor_rm
                0x000000000001586c                netstack_init
 .text          0x000000000001589d       0x80 build/cooja/mtype742.a(linkaddr.o)
                0x000000000001589d                linkaddr_copy
                0x00000000000158be                linkaddr_cmp
                0x00000000000158f4                linkaddr_set_node_addr
 .text          0x000000000001591d      0x29b build/cooja/mtype742.a(csma.o)
 .text          0x0000000000015bb8      0xaba build/cooja/mtype742.a(csma-output.o)
                0x000000000001638c                csma_output_packet
                0x0000000000016643                csma_output_init
 .text          0x0000000000016672      0xe95 build/cooja/mtype742.a(uip-ds6.o)
                0x0000000000016672                uip_ds6_default_prefix
                0x0000000000016683                uip_ds6_set_default_prefix
                0x00000000000166ab                uip_ds6_init
                0x000000000001693b                uip_ds6_periodic
                0x00000000000169dd                uip_ds6_list_loop
                0x0000000000016ac6                uip_ds6_prefix_add
                0x0000000000016b97                uip_ds6_prefix_rm
                0x0000000000016bb5                uip_ds6_prefix_lookup
                0x0000000000016c0c                uip_ds6_is_addr_onlink
                0x0000000000016ca0                uip_ds6_addr_add
                0x0000000000016de5                uip_ds6_addr_rm
                0x0000000000016e9d                uip_ds6_addr_lookup
                0x0000000000016eef                uip_ds6_get_link_local
                0x0000000000016f94                uip_ds6_get_global
                0x0000000000017039                uip_ds6_maddr_add
                0x00000000000170b2                uip_ds6_maddr_rm
                0x00000000000170d0                uip_ds6_maddr_lookup
                0x0000000000017125                uip_ds6_aaddr_add
                0x000000000001719e                uip_ds6_aaddr_rm
                0x00000000000171bc                uip_ds6_aaddr_lookup
                0x0000000000017211                uip_ds6_select_src
                0x000000000001739b                uip_ds6_set_addr_iid
                0x00000000000173d4                uip_ds6_set_lladdr_from_iid
                0x000000000001740b                get_match_length
                0x00000000000174b9                uip_ds6_compute_reachable_time
 .text          0x0000000000017507      0x5a0 build/cooja/mtype742.a(uiplib.o)
                0x0000000000017507                uiplib_ip6addrconv
                0x00000000000176ed                uiplib_ip4addrconv
                0x00000000000177bf                uiplib_ipaddr_print
                0x0000000000017822                uiplib_ipaddr_snprint
 .text          0x0000000000017aa7      0x87f build/cooja/mtype742.a(tcpip.o)
                0x0000000000017ad7                tcpip_output
                0x0000000000017b6f                udp_attach
                0x0000000000017b9d                udp_new
                0x0000000000017bf8                udp_broadcast_new
                0x0000000000017da9                tcpip_input
                0x0000000000017f82                tcpip_ipv6_output
                0x00000000000181db                tcpip_poll_udp
                0x0000000000018209                tcpip_uipcall
 .text          0x0000000000018326      0x3f2 build/cooja/mtype742.a(uip-ds6-route.o)
                0x000000000001837f                uip_ds6_route_init
                0x00000000000183a5                uip_ds6_route_count_nexthop_neighbors
                0x00000000000183b4                uip_ds6_route_nexthop
                0x00000000000183c7                uip_ds6_route_head
                0x00000000000183d6                uip_ds6_route_next
                0x00000000000183e9                uip_ds6_route_is_nexthop
                0x00000000000183fc                uip_ds6_route_num_routes
                0x000000000001840b                uip_ds6_route_lookup
                0x000000000001841e                uip_ds6_route_add
                0x000000000001843a                uip_ds6_route_rm
                0x0000000000018449                uip_ds6_route_rm_by_nexthop
                0x0000000000018458                uip_ds6_defrt_head
                0x0000000000018471                uip_ds6_defrt_add
                0x000000000001852e                uip_ds6_defrt_rm
                0x00000000000185a1                uip_ds6_defrt_lookup
                0x0000000000018618                uip_ds6_defrt_choose
                0x000000000001869b                uip_ds6_defrt_periodic
 .text          0x0000000000018718      0x416 build/cooja/mtype742.a(uip-ds6-nbr.o)
                0x0000000000018718                uip_ds6_neighbors_init
                0x0000000000018741                uip_ds6_nbr_add
                0x00000000000187df                uip_ds6_nbr_rm
                0x000000000001883c                uip_ds6_nbr_update_ll
                0x0000000000018941                uip_ds6_nbr_get_ipaddr
                0x0000000000018961                uip_ds6_nbr_get_ll
                0x0000000000018989                uip_ds6_nbr_num
                0x00000000000189db                uip_ds6_nbr_head
                0x00000000000189f4                uip_ds6_nbr_next
                0x0000000000018a1c                uip_ds6_nbr_lookup
                0x0000000000018a85                uip_ds6_nbr_ll_lookup
                0x0000000000018aad                uip_ds6_nbr_ipaddr_from_lladdr
                0x0000000000018ae1                uip_ds6_nbr_lladdr_from_ipaddr
                0x0000000000018b1d                uip_ds6_link_callback
 .text          0x0000000000018b2e     0x170a build/cooja/mtype742.a(uip6.o)
                0x0000000000018bf2                uip_chksum
                0x0000000000018cd8                uip_icmp6chksum
                0x0000000000018cec                uip_udpchksum
                0x0000000000018d00                uip_init
                0x0000000000018d67                uip_remove_ext_hdr
                0x0000000000018e68                uip_udp_new
                0x0000000000019211                uip_process
                0x000000000001a0be                uip_htons
                0x000000000001a0e1                uip_htonl
                0x000000000001a129                uip_send
 .text          0x000000000001a238      0x839 build/cooja/mtype742.a(uip-nd6.o)
                0x000000000001aa5a                uip_nd6_init
 .text          0x000000000001aa71      0x481 build/cooja/mtype742.a(simple-udp.o)
                0x000000000001aaa2                simple_udp_send
                0x000000000001ab14                simple_udp_sendto
                0x000000000001ab86                simple_udp_sendto_port
                0x000000000001abf6                simple_udp_register
 .text          0x000000000001aef2     0x371a build/cooja/mtype742.a(sicslowpan.o)
                0x000000000001b6cd                netstack_sniffer_add
                0x000000000001b6e7                netstack_sniffer_remove
                0x000000000001e5d5                sicslowpan_init
                0x000000000001e5fc                sicslowpan_get_last_rssi
 .text          0x000000000001e60c      0x665 build/cooja/mtype742.a(rpl.o)
                0x000000000001e60c                rpl_lollipop_greater_than
                0x000000000001e670                rpl_get_global_address
                0x000000000001e810                rpl_link_callback
                0x000000000001e87a                rpl_has_joined
                0x000000000001e8ad                rpl_is_reachable
                0x000000000001e953                rpl_reset_prefix
                0x000000000001e9ca                rpl_set_prefix_from_addr
                0x000000000001eadc                rpl_set_prefix
                0x000000000001ec46                rpl_set_leaf_only
                0x000000000001ec60                rpl_get_leaf_only
 .text          0x000000000001ec71     0x11e4 build/cooja/mtype742.a(rpl-dag.o)
                0x000000000001ec71                rpl_dag_state_to_str
                0x000000000001eccf                rpl_dag_get_root_ipaddr
                0x000000000001ed19                rpl_dag_leave
                0x000000000001edc1                rpl_dag_poison_and_leave
                0x000000000001eddf                rpl_dag_periodic
                0x000000000001eea3                rpl_is_addr_in_our_dag
                0x000000000001eefc                rpl_get_default_instance
                0x000000000001ef23                rpl_get_any_dag
                0x000000000001ef90                rpl_refresh_routes
                0x000000000001eff2                rpl_global_repair
                0x000000000001f0ae                rpl_local_repair
                0x000000000001f10d                rpl_dag_ready_to_advertise
                0x000000000001f165                rpl_dag_update_state
                0x000000000001fa11                rpl_process_dio
                0x000000000001fab0                rpl_process_dis
                0x000000000001fb01                rpl_process_dao
                0x000000000001fbaa                rpl_process_dao_ack
                0x000000000001fc57                rpl_process_hbh
                0x000000000001fcb6                rpl_dag_init_root
                0x000000000001fe31                rpl_dag_init
 .text          0x000000000001fe55      0x354 build/cooja/mtype742.a(rpl-dag-root.o)
                0x000000000001fe55                rpl_dag_root_print_links
                0x000000000001ffc4                rpl_dag_root_set_prefix
                0x0000000000020000                rpl_dag_root_start
                0x0000000000020169                rpl_dag_root_is_root
 .text          0x00000000000201a9       0x49 build/cooja/mtype742.a(watchdog.o)
                0x00000000000201a9                watchdog_init
                0x00000000000201b4                watchdog_start
                0x00000000000201bf                watchdog_periodic
                0x00000000000201dc                watchdog_stop
                0x00000000000201e7                watchdog_reboot
 .text          0x00000000000201f2       0x61 build/cooja/mtype742.a(int-master.o)
                0x00000000000201f2                int_master_enable
                0x0000000000020207                int_master_read_and_disable
                0x0000000000020227                int_master_status_set
                0x000000000002023e                int_master_is_enabled
 .text          0x0000000000020253      0x123 build/cooja/mtype742.a(stimer.o)
                0x0000000000020253                stimer_set
                0x0000000000020282                stimer_reset
                0x00000000000202be                stimer_restart
                0x00000000000202dd                stimer_expired
                0x000000000002031f                stimer_remaining
                0x0000000000020355                stimer_elapsed
 .text          0x0000000000020376      0x21a build/cooja/mtype742.a(memb.o)
                0x0000000000020376                memb_init
                0x00000000000203d9                memb_alloc
                0x0000000000020453                memb_free
                0x00000000000204e6                memb_inmemb
                0x000000000002053d                memb_numfree
 .text          0x0000000000020590       0x31 build/cooja/mtype742.a(assert.o)
                0x0000000000020590                _xassert
 .text          0x00000000000205c1      0x19d build/cooja/mtype742.a(ringbuf.o)
                0x00000000000205c1                ringbuf_init
                0x0000000000020602                ringbuf_put
                0x0000000000020691                ringbuf_get
                0x000000000002070f                ringbuf_size
                0x000000000002072b                ringbuf_elements
 .text          0x000000000002075e      0xc97 build/cooja/mtype742.a(nbr-table.o)
                0x0000000000020bbd                nbr_table_count_entries
                0x0000000000020c5f                nbr_table_gc_get_worst
                0x0000000000020ca3                nbr_table_can_accept_new
                0x0000000000020e55                nbr_table_entry_is_allowed
                0x0000000000020eff                nbr_table_register
                0x0000000000020f91                nbr_table_is_registered
                0x0000000000020fe8                nbr_table_head
                0x0000000000021053                nbr_table_next
                0x00000000000210cd                nbr_table_add_lladdr
                0x000000000002122a                nbr_table_get_from_lladdr
                0x0000000000021286                nbr_table_remove
                0x00000000000212da                nbr_table_lock
                0x000000000002130c                nbr_table_unlock
                0x000000000002133e                nbr_table_get_lladdr
                0x0000000000021381                nbr_table_clear
                0x00000000000213be                nbr_table_key_head
                0x00000000000213d7                nbr_table_key_next
 .text          0x00000000000213f5      0x443 build/cooja/mtype742.a(link-stats.o)
                0x00000000000213f5                link_stats_from_lladdr
                0x000000000002141d                link_stats_get_lladdr
                0x0000000000021445                link_stats_is_fresh
                0x000000000002148d                guess_etx_from_rssi
                0x0000000000021512                link_stats_packet_sent
                0x0000000000021666                link_stats_input_callback
                0x000000000002179d                link_stats_reset
                0x00000000000217f9                link_stats_init
 .text          0x0000000000021838      0x1e2 build/cooja/mtype742.a(mac-sequence.o)
                0x0000000000021838                mac_sequence_is_duplicate
                0x000000000002191d                mac_sequence_register_seqno
 .text          0x0000000000021a1a       0x3a build/cooja/mtype742.a(mac.o)
                0x0000000000021a1a                mac_call_sent_callback
 .text          0x0000000000021a54      0x452 build/cooja/mtype742.a(framer-802154.o)
                0x0000000000021bef                framer_802154_setup_params
 .text          0x0000000000021ea6      0xcaa build/cooja/mtype742.a(frame802154.o)
                0x0000000000021ed4                frame802154_get_pan_id
                0x0000000000021ee5                frame802154_set_pan_id
                0x0000000000021f01                frame802154_has_panid
                0x00000000000220e0                frame802154_check_dest_panid
                0x000000000002217f                frame802154_is_broadcast_addr
                0x00000000000221d6                frame802154_extract_linkaddr
                0x0000000000022470                frame802154_hdrlen
                0x00000000000224ef                frame802154_create_fcf
                0x00000000000225c1                frame802154_create
                0x000000000002276b                frame802154_parse_fcf
                0x0000000000022862                frame802154_parse
 .text          0x0000000000022b50       0x3d build/cooja/mtype742.a(csma-security.o)
                0x0000000000022b50                csma_security_create_frame
                0x0000000000022b76                csma_security_parse_frame
 .text          0x0000000000022b8d      0x595 build/cooja/mtype742.a(uipbuf.o)
                0x0000000000022b8d                uipbuf_clear
                0x0000000000022bbf                uipbuf_add_ext_hdr
                0x0000000000022c57                uipbuf_set_len
                0x0000000000022c89                uipbuf_set_len_field
                0x0000000000022cbc                uipbuf_get_len_field
                0x0000000000022ce7                uipbuf_get_next_header
                0x0000000000022e40                uipbuf_get_last_header
                0x0000000000022ed3                uipbuf_search_header
                0x0000000000022f9a                uipbuf_get_attr
                0x0000000000022fcb                uipbuf_set_attr
                0x000000000002300b                uipbuf_set_default_attr
                0x000000000002304b                uipbuf_clear_attr
                0x0000000000023072                uipbuf_set_attr_flag
                0x0000000000023095                uipbuf_clr_attr_flag
                0x00000000000230be                uipbuf_is_attr_flag
                0x00000000000230e3                uipbuf_init
 .text          0x0000000000023122      0x8af build/cooja/mtype742.a(uip-icmp6.o)
                0x000000000002319f                uip_icmp6_input
                0x00000000000231fd                uip_icmp6_register_input_handler
                0x000000000002338f                uip_icmp6_error_output
                0x00000000000236f2                uip_icmp6_send
                0x000000000002393e                uip_icmp6_echo_reply_callback_add
                0x0000000000023985                uip_icmp6_echo_reply_callback_rm
                0x00000000000239ae                uip_icmp6_init
 .text          0x00000000000239d1      0x7bb build/cooja/mtype742.a(uip-sr.o)
                0x00000000000239d1                uip_sr_num_nodes
                0x0000000000023a7c                uip_sr_get_node
                0x0000000000023ae4                uip_sr_is_addr_reachable
                0x0000000000023bac                uip_sr_expire_parent
                0x0000000000023c0f                uip_sr_update_node
                0x0000000000023d80                uip_sr_init
                0x0000000000023db0                uip_sr_node_head
                0x0000000000023dc9                uip_sr_node_next
                0x0000000000023de7                uip_sr_periodic
                0x0000000000023f09                uip_sr_free_all
                0x0000000000023f85                uip_sr_link_snprint
 .text          0x000000000002418c      0x1b0 build/cooja/mtype742.a(uip-packetqueue)
                0x00000000000241c8                uip_packetqueue_new
                0x00000000000241e2                uip_packetqueue_alloc
                0x0000000000024259                uip_packetqueue_free
                0x00000000000242ae                uip_packetqueue_buf
                0x00000000000242da                uip_packetqueue_buflen
                0x0000000000024309                uip_packetqueue_set_buflen
 .text          0x000000000002433c      0x144 build/cooja/mtype742.a(uip-udp-packet.)
                0x000000000002433c                uip_udp_packet_send
                0x00000000000243bb                uip_udp_packet_sendto
 .text          0x0000000000024480     0x16d9 build/cooja/mtype742.a(rpl-icmp6.o)
                0x0000000000024614                rpl_icmp6_update_nbr_table
                0x00000000000246c9                rpl_icmp6_dis_output
                0x0000000000024deb                rpl_icmp6_dio_output
                0x0000000000025718                rpl_icmp6_dao_output
                0x0000000000025a88                rpl_icmp6_dao_ack_output
                0x0000000000025b1e                rpl_icmp6_init
 .text          0x0000000000025b59      0xae7 build/cooja/mtype742.a(rpl-neighbor.o)
                0x0000000000025bf0                rpl_neighbor_snprint
                0x0000000000025f27                rpl_neighbor_print_list
                0x0000000000025ffe                rpl_neighbor_count
                0x00000000000260e9                rpl_neighbor_get_from_lladdr
                0x0000000000026114                rpl_neighbor_is_acceptable_parent
                0x0000000000026160                rpl_neighbor_get_link_metric
                0x00000000000261ac                rpl_neighbor_rank_via_nbr
                0x00000000000261f8                rpl_neighbor_get_lladdr
                0x0000000000026223                rpl_neighbor_get_ipaddr
                0x0000000000026251                rpl_neighbor_get_link_stats
                0x000000000002627f                rpl_neighbor_is_fresh
                0x00000000000262ad                rpl_neighbor_is_parent
                0x00000000000262e6                rpl_neighbor_set_preferred_parent
                0x000000000002639d                rpl_neighbor_remove_all
                0x0000000000026403                rpl_neighbor_get_from_ipaddr
                0x000000000002653c                rpl_neighbor_select_best
                0x000000000002661c                rpl_neighbor_init
 .text          0x0000000000026640      0xce7 build/cooja/mtype742.a(rpl-timers.o)
                0x0000000000026640                rpl_timers_schedule_periodic_dis
                0x00000000000267ed                rpl_timers_dio_reset
                0x000000000002696e                rpl_timers_schedule_unicast_dio
                0x0000000000026b49                rpl_timers_schedule_dao
                0x0000000000026c4c                rpl_timers_schedule_dao_ack
                0x0000000000026d08                rpl_timers_notify_dao_ack
                0x0000000000026d7a                get_probing_delay
                0x0000000000026dc7                get_probing_target
                0x000000000002700f                rpl_schedule_probing
                0x0000000000027050                rpl_schedule_probing_now
                0x00000000000270db                rpl_timers_unschedule_leaving
                0x000000000002711f                rpl_timers_schedule_leaving
                0x0000000000027174                rpl_timers_init
                0x000000000002721d                rpl_timers_stop_dag_timers
                0x00000000000272aa                rpl_timers_unschedule_state_update
                0x00000000000272d4                rpl_timers_schedule_state_update
 .text          0x0000000000027327      0xe0b build/cooja/mtype742.a(rpl-ext-header.)
                0x0000000000027327                rpl_ext_header_srh_get_next_hop
                0x0000000000027435                rpl_ext_header_srh_update
                0x0000000000027adf                rpl_ext_header_hbh_update
                0x0000000000027e7f                rpl_ext_header_update
                0x0000000000027f29                rpl_ext_header_remove
 .text          0x0000000000028132       0x8d build/cooja/mtype742.a(rpl-nbr-policy.)
                0x000000000002817a                rpl_nbr_gc_get_worst
 .text          0x00000000000281bf      0x374 build/cooja/mtype742.a(rpl-mrhof.o)
 .text          0x0000000000028533        0x0 /usr/lib/gcc/x86_64-linux-gnu/9/crtendS.o
 .text          0x0000000000028533        0x0 /usr/lib/gcc/x86_64-linux-gnu/9/../../../x86_64-linux-gnu/crtn.o
 *(.gnu.warning)

.fini           0x0000000000028534        0xd
 *(SORT_NONE(.fini))
 .fini          0x0000000000028534        0x8 /usr/lib/gcc/x86_64-linux-gnu/9/../../../x86_64-linux-gnu/crti.o
                0x0000000000028534                _fini
 .fini          0x000000000002853c        0x5 /usr/lib/gcc/x86_64-linux-gnu/9/../../../x86_64-linux-gnu/crtn.o
                [!provide]                        PROVIDE (__etext = .)
                [!provide]                        PROVIDE (_etext = .)
                [!provide]                        PROVIDE (etext = .)
                0x0000000000029000                . = ALIGN (CONSTANT (MAXPAGESIZE))
                0x0000000000029000                . = SEGMENT_START ("rodata-segment", (ALIGN (CONSTANT (MAXPAGESIZE)) + (. & (CONSTANT (MAXPAGESIZE) - 0x1))))

.rodata         0x0000000000029000      0x654
 *(.rodata .rodata.* .gnu.linkonce.r.*)
 .rodata        0x0000000000029000       0x82 Client.o
 .rodata        0x0000000000029082       0x4c build/cooja/obj/TransferUDP.o
 .rodata        0x00000000000290ce        0x6 build/cooja/mtype742.a(leds-arch.o)
                0x00000000000290ce                leds_arch_leds
 .rodata        0x00000000000290d4        0x4 build/cooja/mtype742.a(pir-sensor.o)
 .rodata        0x00000000000290d8        0x6 build/cooja/mtype742.a(rs232.o)
 .rodata        0x00000000000290de        0xa build/cooja/mtype742.a(vib-sensor.o)
 .rodata        0x00000000000290e8       0x27 build/cooja/mtype742.a(cfs-cooja.o)
 *fill*         0x000000000002910f        0x1 
 .rodata        0x0000000000029110       0x68 build/cooja/mtype742.a(cooja-radio.o)
 .rodata        0x0000000000029178        0x8 build/cooja/mtype742.a(sensors.o)
 .rodata        0x0000000000029180       0x14 build/cooja/mtype742.a(buttons.o)
                0x000000000002918c                button_hal_button_count
 *fill*         0x0000000000029194        0x4 
 .rodata        0x0000000000029198      0x104 build/cooja/mtype742.a(contiki-main.o)
 .rodata        0x000000000002929c        0xf build/cooja/mtype742.a(ctimer.o)
 *fill*         0x00000000000292ab        0x1 
 .rodata        0x00000000000292ac       0xc4 build/cooja/mtype742.a(log.o)
 .rodata        0x0000000000029370        0xc build/cooja/mtype742.a(etimer.o)
 .rodata        0x000000000002937c       0x13 build/cooja/mtype742.a(button-hal.o)
 .rodata        0x000000000002938f        0xe build/cooja/mtype742.a(serial-line.o)
 *fill*         0x000000000002939d        0x3 
 .rodata        0x00000000000293a0        0x8 build/cooja/mtype742.a(linkaddr.o)
                0x00000000000293a0                linkaddr_null
 .rodata        0x00000000000293a8        0x5 build/cooja/mtype742.a(csma.o)
 *fill*         0x00000000000293ad        0x3 
 .rodata        0x00000000000293b0       0x34 build/cooja/mtype742.a(csma-output.o)
 .rodata        0x00000000000293e4       0x2d build/cooja/mtype742.a(uiplib.o)
 .rodata        0x0000000000029411        0xd build/cooja/mtype742.a(tcpip.o)
 *fill*         0x000000000002941e        0x2 
 .rodata        0x0000000000029420       0x4d build/cooja/mtype742.a(uip-ds6-route.o)
 .rodata        0x000000000002946d       0x13 build/cooja/mtype742.a(simple-udp.o)
 .rodata        0x0000000000029480       0x1d build/cooja/mtype742.a(sicslowpan.o)
                0x0000000000029480                unc_llconf
                0x0000000000029484                unc_ctxconf
                0x0000000000029488                unc_mxconf
                0x000000000002948c                llprefix
 .rodata        0x000000000002949d        0x9 build/cooja/mtype742.a(rpl.o)
 .rodata        0x00000000000294a6       0xd7 build/cooja/mtype742.a(rpl-dag.o)
 *fill*         0x000000000002957d        0x3 
 .rodata        0x0000000000029580       0x25 build/cooja/mtype742.a(assert.o)
 .rodata        0x00000000000295a5       0x44 build/cooja/mtype742.a(uip-sr.o)
 *fill*         0x00000000000295e9        0x7 
 .rodata        0x00000000000295f0       0x58 build/cooja/mtype742.a(rpl-neighbor.o)
 .rodata        0x0000000000029648        0xc build/cooja/mtype742.a(rpl-timers.o)

.rodata1
 *(.rodata1)

.eh_frame_hdr   0x0000000000029654     0x1674
 *(.eh_frame_hdr)
 .eh_frame_hdr  0x0000000000029654     0x1674 Client.o
                0x0000000000029654                __GNU_EH_FRAME_HDR
 *(.eh_frame_entry .eh_frame_entry.*)

.eh_frame       0x000000000002acc8     0x5a2c
 *(.eh_frame)
 .eh_frame      0x000000000002acc8       0x40 /usr/lib/gcc/x86_64-linux-gnu/9/../../../x86_64-linux-gnu/crti.o
 .eh_frame      0x000000000002ad08       0x18 /usr/lib/gcc/x86_64-linux-gnu/9/../../../x86_64-linux-gnu/crti.o
                                         0x30 (size before relaxing)
 .eh_frame      0x000000000002ad20       0x18 /usr/lib/gcc/x86_64-linux-gnu/9/../../../x86_64-linux-gnu/crti.o
                                         0x30 (size before relaxing)
 .eh_frame      0x000000000002ad38       0x20 Client.o
                                         0x38 (size before relaxing)
 .eh_frame      0x000000000002ad58      0x178 build/cooja/mtype742.o
                                        0x190 (size before relaxing)
 .eh_frame      0x000000000002aed0       0x80 build/cooja/obj/TransferUDP.o
                                         0x98 (size before relaxing)
 .eh_frame      0x000000000002af50       0x40 build/cooja/mtype742.a(simEnvChange.o)
                                         0x58 (size before relaxing)
 .eh_frame      0x000000000002af90       0x60 build/cooja/mtype742.a(cooja_mt.o)
                                         0x78 (size before relaxing)
 .eh_frame      0x000000000002aff0       0x80 build/cooja/mtype742.a(cooja_mtarch.o)
                                         0x98 (size before relaxing)
 .eh_frame      0x000000000002b070       0xc0 build/cooja/mtype742.a(rtimer-arch.o)
                                         0xd8 (size before relaxing)
 .eh_frame      0x000000000002b130      0x160 build/cooja/mtype742.a(beep.o)
                                        0x178 (size before relaxing)
 .eh_frame      0x000000000002b290       0x80 build/cooja/mtype742.a(leds-arch.o)
                                         0x98 (size before relaxing)
 .eh_frame      0x000000000002b310       0x40 build/cooja/mtype742.a(moteid.o)
                                         0x58 (size before relaxing)
 .eh_frame      0x000000000002b350       0xa0 build/cooja/mtype742.a(pir-sensor.o)
                                         0xb8 (size before relaxing)
 .eh_frame      0x000000000002b3f0      0x100 build/cooja/mtype742.a(rs232.o)
                                        0x118 (size before relaxing)
 .eh_frame      0x000000000002b4f0       0xa0 build/cooja/mtype742.a(vib-sensor.o)
                                         0xb8 (size before relaxing)
 .eh_frame      0x000000000002b590       0xc0 build/cooja/mtype742.a(clock.o)
                                         0xd8 (size before relaxing)
 .eh_frame      0x000000000002b650      0x128 build/cooja/mtype742.a(cooja-log.o)
                                        0x140 (size before relaxing)
 .eh_frame      0x000000000002b778      0x160 build/cooja/mtype742.a(cfs-cooja.o)
                                        0x178 (size before relaxing)
 .eh_frame      0x000000000002b8d8      0x340 build/cooja/mtype742.a(cooja-radio.o)
                                        0x358 (size before relaxing)
 .eh_frame      0x000000000002bc18       0xa0 build/cooja/mtype742.a(eeprom.o)
                                         0xb8 (size before relaxing)
 .eh_frame      0x000000000002bcb8       0x40 build/cooja/mtype742.a(random.o)
                                         0x58 (size before relaxing)
 .eh_frame      0x000000000002bcf8       0xc0 build/cooja/mtype742.a(sensors.o)
                                         0xd8 (size before relaxing)
 .eh_frame      0x000000000002bdb8      0x120 build/cooja/mtype742.a(leds.o)
                                        0x138 (size before relaxing)
 .eh_frame      0x000000000002bed8      0x220 build/cooja/mtype742.a(gpio-hal-arch.o)
                                        0x238 (size before relaxing)
 .eh_frame      0x000000000002c0f8       0xa0 build/cooja/mtype742.a(buttons.o)
                                         0xb8 (size before relaxing)
 .eh_frame      0x000000000002c198       0x20 build/cooja/mtype742.a(contiki-main.o)
                                         0x38 (size before relaxing)
 .eh_frame      0x000000000002c1b8       0x40 build/cooja/mtype742.a(autostart.o)
                                         0x58 (size before relaxing)
 .eh_frame      0x000000000002c1f8      0x100 build/cooja/mtype742.a(ctimer.o)
                                        0x118 (size before relaxing)
 .eh_frame      0x000000000002c2f8      0x120 build/cooja/mtype742.a(log.o)
                                        0x138 (size before relaxing)
 .eh_frame      0x000000000002c418       0x60 build/cooja/mtype742.a(energest.o)
                                         0x78 (size before relaxing)
 .eh_frame      0x000000000002c478      0x1e0 build/cooja/mtype742.a(etimer.o)
                                        0x1f8 (size before relaxing)
 .eh_frame      0x000000000002c658       0x20 build/cooja/mtype742.a(node-id.o)
                                         0x38 (size before relaxing)
 .eh_frame      0x000000000002c678       0x60 build/cooja/mtype742.a(rtimer.o)
                                         0x78 (size before relaxing)
 .eh_frame      0x000000000002c6d8      0x1c8 build/cooja/mtype742.a(process.o)
                                        0x1e0 (size before relaxing)
 .eh_frame      0x000000000002c8a0       0xa0 build/cooja/mtype742.a(timer.o)
                                         0xb8 (size before relaxing)
 .eh_frame      0x000000000002c940      0x1a0 build/cooja/mtype742.a(list.o)
                                        0x1b8 (size before relaxing)
 .eh_frame      0x000000000002cae0      0x160 build/cooja/mtype742.a(button-hal.o)
                                        0x178 (size before relaxing)
 .eh_frame      0x000000000002cc40       0x60 build/cooja/mtype742.a(serial-line.o)
                                         0x78 (size before relaxing)
 .eh_frame      0x000000000002cca0       0xe0 build/cooja/mtype742.a(gpio-hal.o)
                                         0xf8 (size before relaxing)
 .eh_frame      0x000000000002cd80      0x1a0 build/cooja/mtype742.a(queuebuf.o)
                                        0x1b8 (size before relaxing)
 .eh_frame      0x000000000002cf20      0x288 build/cooja/mtype742.a(packetbuf.o)
                                        0x2a0 (size before relaxing)
 .eh_frame      0x000000000002d1a8       0x80 build/cooja/mtype742.a(netstack.o)
                                         0x98 (size before relaxing)
 .eh_frame      0x000000000002d228       0x60 build/cooja/mtype742.a(linkaddr.o)
                                         0x78 (size before relaxing)
 .eh_frame      0x000000000002d288       0xe0 build/cooja/mtype742.a(csma.o)
                                         0xf8 (size before relaxing)
 .eh_frame      0x000000000002d368      0x1c8 build/cooja/mtype742.a(csma-output.o)
                                        0x1e0 (size before relaxing)
 .eh_frame      0x000000000002d530      0x328 build/cooja/mtype742.a(uip-ds6.o)
                                        0x340 (size before relaxing)
 .eh_frame      0x000000000002d858       0x80 build/cooja/mtype742.a(uiplib.o)
                                         0x98 (size before relaxing)
 .eh_frame      0x000000000002d8d8      0x248 build/cooja/mtype742.a(tcpip.o)
                                        0x260 (size before relaxing)
 .eh_frame      0x000000000002db20      0x240 build/cooja/mtype742.a(uip-ds6-route.o)
                                        0x258 (size before relaxing)
 .eh_frame      0x000000000002dd60      0x1c0 build/cooja/mtype742.a(uip-ds6-nbr.o)
                                        0x1d8 (size before relaxing)
 .eh_frame      0x000000000002df20      0x1e8 build/cooja/mtype742.a(uip6.o)
                                        0x200 (size before relaxing)
 .eh_frame      0x000000000002e108       0x80 build/cooja/mtype742.a(uip-nd6.o)
                                         0x98 (size before relaxing)
 .eh_frame      0x000000000002e188       0xc0 build/cooja/mtype742.a(simple-udp.o)
                                         0xd8 (size before relaxing)
 .eh_frame      0x000000000002e248      0x2e0 build/cooja/mtype742.a(sicslowpan.o)
                                        0x2f8 (size before relaxing)
 .eh_frame      0x000000000002e528      0x1e0 build/cooja/mtype742.a(rpl.o)
                                        0x1f8 (size before relaxing)
 .eh_frame      0x000000000002e708      0x360 build/cooja/mtype742.a(rpl-dag.o)
                                        0x378 (size before relaxing)
 .eh_frame      0x000000000002ea68       0xa0 build/cooja/mtype742.a(rpl-dag-root.o)
                                         0xb8 (size before relaxing)
 .eh_frame      0x000000000002eb08       0xa0 build/cooja/mtype742.a(watchdog.o)
                                         0xb8 (size before relaxing)
 .eh_frame      0x000000000002eba8       0x80 build/cooja/mtype742.a(int-master.o)
                                         0x98 (size before relaxing)
 .eh_frame      0x000000000002ec28       0xc0 build/cooja/mtype742.a(stimer.o)
                                         0xd8 (size before relaxing)
 .eh_frame      0x000000000002ece8       0xa0 build/cooja/mtype742.a(memb.o)
                                         0xb8 (size before relaxing)
 .eh_frame      0x000000000002ed88       0x20 build/cooja/mtype742.a(assert.o)
                                         0x38 (size before relaxing)
 .eh_frame      0x000000000002eda8       0xa0 build/cooja/mtype742.a(ringbuf.o)
                                         0xb8 (size before relaxing)
 .eh_frame      0x000000000002ee48      0x3e0 build/cooja/mtype742.a(nbr-table.o)
                                        0x3f8 (size before relaxing)
 .eh_frame      0x000000000002f228      0x120 build/cooja/mtype742.a(link-stats.o)
                                        0x138 (size before relaxing)
 .eh_frame      0x000000000002f348       0x48 build/cooja/mtype742.a(mac-sequence.o)
                                         0x60 (size before relaxing)
 .eh_frame      0x000000000002f390       0x20 build/cooja/mtype742.a(mac.o)
                                         0x38 (size before relaxing)
 .eh_frame      0x000000000002f3b0       0xa8 build/cooja/mtype742.a(framer-802154.o)
                                         0xc0 (size before relaxing)
 .eh_frame      0x000000000002f458      0x1a8 build/cooja/mtype742.a(frame802154.o)
                                        0x1c0 (size before relaxing)
 .eh_frame      0x000000000002f600       0x40 build/cooja/mtype742.a(csma-security.o)
                                         0x58 (size before relaxing)
 .eh_frame      0x000000000002f640      0x200 build/cooja/mtype742.a(uipbuf.o)
                                        0x218 (size before relaxing)
 .eh_frame      0x000000000002f840      0x148 build/cooja/mtype742.a(uip-icmp6.o)
                                        0x160 (size before relaxing)
 .eh_frame      0x000000000002f988      0x180 build/cooja/mtype742.a(uip-sr.o)
                                        0x198 (size before relaxing)
 .eh_frame      0x000000000002fb08       0xe0 build/cooja/mtype742.a(uip-packetqueue)
                                         0xf8 (size before relaxing)
 .eh_frame      0x000000000002fbe8       0x40 build/cooja/mtype742.a(uip-udp-packet.)
                                         0x58 (size before relaxing)
 .eh_frame      0x000000000002fc28      0x1c0 build/cooja/mtype742.a(rpl-icmp6.o)
                                        0x1d8 (size before relaxing)
 .eh_frame      0x000000000002fde8      0x2b0 build/cooja/mtype742.a(rpl-neighbor.o)
                                        0x2c8 (size before relaxing)
 .eh_frame      0x0000000000030098      0x3a8 build/cooja/mtype742.a(rpl-timers.o)
                                        0x3c0 (size before relaxing)
 .eh_frame      0x0000000000030440      0x128 build/cooja/mtype742.a(rpl-ext-header.)
                                        0x140 (size before relaxing)
 .eh_frame      0x0000000000030568       0x40 build/cooja/mtype742.a(rpl-nbr-policy.)
                                         0x58 (size before relaxing)
 .eh_frame      0x00000000000305a8      0x148 build/cooja/mtype742.a(rpl-mrhof.o)
                                        0x160 (size before relaxing)
 .eh_frame      0x00000000000306f0        0x4 /usr/lib/gcc/x86_64-linux-gnu/9/crtendS.o
 *(.eh_frame.*)

.gcc_except_table
 *(.gcc_except_table .gcc_except_table.*)

.gnu_extab
 *(.gnu_extab*)

.exception_ranges
 *(.exception_ranges*)
                0x0000000000031710                . = DATA_SEGMENT_ALIGN (CONSTANT (MAXPAGESIZE), CONSTANT (COMMONPAGESIZE))

.eh_frame
 *(.eh_frame)
 *(.eh_frame.*)

.gnu_extab
 *(.gnu_extab)

.gcc_except_table
 *(.gcc_except_table .gcc_except_table.*)

.exception_ranges
 *(.exception_ranges*)

.tdata
 *(.tdata .tdata.* .gnu.linkonce.td.*)

.tbss
 *(.tbss .tbss.* .gnu.linkonce.tb.*)
 *(.tcommon)

.preinit_array
 *(.preinit_array)

.init_array     0x0000000000031710        0x8
 *(SORT_BY_INIT_PRIORITY(.init_array.*) SORT_BY_INIT_PRIORITY(.ctors.*))
 *(.init_array EXCLUDE_FILE(*crtend?.o *crtend.o *crtbegin?.o *crtbegin.o) .ctors)
 .init_array    0x0000000000031710        0x8 /usr/lib/gcc/x86_64-linux-gnu/9/crtbeginS.o

.fini_array     0x0000000000031718        0x8
 *(SORT_BY_INIT_PRIORITY(.fini_array.*) SORT_BY_INIT_PRIORITY(.dtors.*))
 *(.fini_array EXCLUDE_FILE(*crtend?.o *crtend.o *crtbegin?.o *crtbegin.o) .dtors)
 .fini_array    0x0000000000031718        0x8 /usr/lib/gcc/x86_64-linux-gnu/9/crtbeginS.o

.ctors
 *crtbegin.o(.ctors)
 *crtbegin?.o(.ctors)
 *(EXCLUDE_FILE(*crtend?.o *crtend.o) .ctors)
 *(SORT_BY_NAME(.ctors.*))
 *(.ctors)

.dtors
 *crtbegin.o(.dtors)
 *crtbegin?.o(.dtors)
 *(EXCLUDE_FILE(*crtend?.o *crtend.o) .dtors)
 *(SORT_BY_NAME(.dtors.*))
 *(.dtors)

.jcr
 *(.jcr)

.data.rel.ro    0x0000000000031720      0x350
 *(.data.rel.ro.local* .gnu.linkonce.d.rel.ro.local.*)
 .data.rel.ro.local
                0x0000000000031720       0x10 build/cooja/mtype742.a(beep.o)
                0x0000000000031720                beep_interface
 .data.rel.ro.local
                0x0000000000031730       0x10 build/cooja/mtype742.a(leds-arch.o)
                0x0000000000031730                leds_interface
 .data.rel.ro.local
                0x0000000000031740       0x10 build/cooja/mtype742.a(moteid.o)
                0x0000000000031740                moteid_interface
 *fill*         0x0000000000031750       0x10 
 .data.rel.ro.local
                0x0000000000031760       0x40 build/cooja/mtype742.a(pir-sensor.o)
                0x0000000000031760                pir_interface
                0x0000000000031780                pir_sensor
 .data.rel.ro.local
                0x00000000000317a0       0x10 build/cooja/mtype742.a(rs232.o)
                0x00000000000317a0                rs232_interface
 *fill*         0x00000000000317b0       0x10 
 .data.rel.ro.local
                0x00000000000317c0       0x40 build/cooja/mtype742.a(vib-sensor.o)
                0x00000000000317c0                vib_interface
                0x00000000000317e0                vib_sensor
 .data.rel.ro.local
                0x0000000000031800       0x10 build/cooja/mtype742.a(clock.o)
                0x0000000000031800                clock_interface
 .data.rel.ro.local
                0x0000000000031810       0x10 build/cooja/mtype742.a(cooja-log.o)
                0x0000000000031810                simlog_interface
 .data.rel.ro.local
                0x0000000000031820       0x10 build/cooja/mtype742.a(cfs-cooja.o)
                0x0000000000031820                cfs_interface
 *fill*         0x0000000000031830       0x10 
 .data.rel.ro.local
                0x0000000000031840       0x90 build/cooja/mtype742.a(cooja-radio.o)
                0x0000000000031840                radio_interface
                0x0000000000031860                cooja_radio_driver
 .data.rel.ro.local
                0x00000000000318d0       0x10 build/cooja/mtype742.a(eeprom.o)
                0x00000000000318d0                eeprom_interface
 .data.rel.ro.local
                0x00000000000318e0       0x40 build/cooja/mtype742.a(buttons.o)
                0x00000000000318e0                button_interface
                0x0000000000031900                button_sensor
 .data.rel.ro.local
                0x0000000000031920       0x38 build/cooja/mtype742.a(csma.o)
                0x0000000000031920                csma_driver
 *fill*         0x0000000000031958        0x8 
 .data.rel.ro.local
                0x0000000000031960       0x18 build/cooja/mtype742.a(framer-802154.o)
                0x0000000000031960                framer_802154
 *(.data.rel.ro .data.rel.ro.* .gnu.linkonce.d.rel.ro.*)
 .data.rel.ro   0x0000000000031978        0x0 /usr/lib/gcc/x86_64-linux-gnu/9/../../../x86_64-linux-gnu/crti.o
 *fill*         0x0000000000031978        0x8 
 .data.rel.ro   0x0000000000031980       0x10 Client.o
                0x0000000000031980                autostart_processes
 *fill*         0x0000000000031990       0x10 
 .data.rel.ro   0x00000000000319a0       0x20 build/cooja/mtype742.a(sicslowpan.o)
                0x00000000000319a0                sicslowpan_driver
 .data.rel.ro   0x00000000000319c0       0xa8 build/cooja/mtype742.a(rpl.o)
                0x00000000000319c0                rpl_lite_driver
 .data.rel.ro   0x0000000000031a68        0x8 build/cooja/mtype742.a(rpl-dag.o)

.dynamic        0x0000000000031a70      0x1c0
 *(.dynamic)
 .dynamic       0x0000000000031a70      0x1c0 /usr/lib/gcc/x86_64-linux-gnu/9/../../../x86_64-linux-gnu/crti.o
                0x0000000000031a70                _DYNAMIC

.got            0x0000000000031c30      0x3c8
 *(.got)
 .got           0x0000000000031c30      0x3c8 /usr/lib/gcc/x86_64-linux-gnu/9/../../../x86_64-linux-gnu/crti.o
 *(.igot)
                0x0000000000032fe8                . = DATA_SEGMENT_RELRO_END (., (SIZEOF (.got.plt) >= 0x18)?0x18:0x0)

.got.plt        0x0000000000032000      0xad0
 *(.got.plt)
 .got.plt       0x0000000000032000      0xad0 /usr/lib/gcc/x86_64-linux-gnu/9/../../../x86_64-linux-gnu/crti.o
                0x0000000000032000                _GLOBAL_OFFSET_TABLE_
 *(.igot.plt)

.data           0x0000000000032ae0      0x788
 *(.data .data.* .gnu.linkonce.d.*)
 .data          0x0000000000032ae0        0x0 /usr/lib/gcc/x86_64-linux-gnu/9/../../../x86_64-linux-gnu/crti.o
 .data          0x0000000000032ae0        0x0 /usr/lib/gcc/x86_64-linux-gnu/9/crtbeginS.o
 .data.rel.local
                0x0000000000032ae0        0x8 /usr/lib/gcc/x86_64-linux-gnu/9/crtbeginS.o
                0x0000000000032ae0                __dso_handle
 .data          0x0000000000032ae8        0x0 Client.o
 *fill*         0x0000000000032ae8       0x18 
 .data.rel.local
                0x0000000000032b00       0x20 Client.o
                0x0000000000032b00                wima_client_process
 .data          0x0000000000032b20        0x0 build/cooja/mtype742.o
 .data.rel      0x0000000000032b20       0xa0 build/cooja/mtype742.o
                0x0000000000032b20                simInterfaces
                0x0000000000032ba0                sensors
 .data          0x0000000000032bc0        0x0 build/cooja/obj/TransferUDP.o
 .data          0x0000000000032bc0        0x0 build/cooja/mtype742.a(simEnvChange.o)
 .data          0x0000000000032bc0        0x0 build/cooja/mtype742.a(cooja_mt.o)
 .data          0x0000000000032bc0        0x0 build/cooja/mtype742.a(cooja_mtarch.o)
 .data          0x0000000000032bc0        0x0 build/cooja/mtype742.a(rtimer-arch.o)
 .data          0x0000000000032bc0        0x0 build/cooja/mtype742.a(beep.o)
 .data          0x0000000000032bc0        0x0 build/cooja/mtype742.a(leds-arch.o)
 .data          0x0000000000032bc0        0x0 build/cooja/mtype742.a(moteid.o)
 .data          0x0000000000032bc0        0x0 build/cooja/mtype742.a(pir-sensor.o)
 .data          0x0000000000032bc0        0x0 build/cooja/mtype742.a(rs232.o)
 .data          0x0000000000032bc0        0x0 build/cooja/mtype742.a(vib-sensor.o)
 .data          0x0000000000032bc0        0x0 build/cooja/mtype742.a(clock.o)
 .data          0x0000000000032bc0        0x0 build/cooja/mtype742.a(cooja-log.o)
 .data          0x0000000000032bc0        0x1 build/cooja/mtype742.a(cfs-cooja.o)
                0x0000000000032bc0                imgsimsimul
 *fill*         0x0000000000032bc1        0x3 
 .data          0x0000000000032bc4       0x1c build/cooja/mtype742.a(cooja-radio.o)
                0x0000000000032bc4                simRadioHWOn
                0x0000000000032bc8                simSignalStrength
                0x0000000000032bcc                simLastSignalStrength
                0x0000000000032bd0                simPower
                0x0000000000032bd4                simRadioChannel
                0x0000000000032bd8                simLQI
 .data.rel.local
                0x0000000000032be0       0x20 build/cooja/mtype742.a(cooja-radio.o)
                0x0000000000032be0                cooja_radio_process
 .data          0x0000000000032c00        0x0 build/cooja/mtype742.a(eeprom.o)
 .data          0x0000000000032c00        0x0 build/cooja/mtype742.a(random.o)
 .data          0x0000000000032c00        0x0 build/cooja/mtype742.a(sensors.o)
 .data.rel.local
                0x0000000000032c00       0x20 build/cooja/mtype742.a(sensors.o)
                0x0000000000032c00                sensors_process
 .data          0x0000000000032c20        0x0 build/cooja/mtype742.a(leds.o)
 .data          0x0000000000032c20        0x0 build/cooja/mtype742.a(gpio-hal-arch.o)
 .data          0x0000000000032c20        0x1 build/cooja/mtype742.a(buttons.o)
                0x0000000000032c20                simButtonIsActive
 *fill*         0x0000000000032c21       0x1f 
 .data.rel.local
                0x0000000000032c40       0xb0 build/cooja/mtype742.a(buttons.o)
                0x0000000000032ce0                button_hal_buttons
 .data          0x0000000000032cf0        0x0 build/cooja/mtype742.a(contiki-main.o)
 .data          0x0000000000032cf0        0x0 build/cooja/mtype742.a(autostart.o)
 .data          0x0000000000032cf0        0x0 build/cooja/mtype742.a(ctimer.o)
 *fill*         0x0000000000032cf0       0x10 
 .data.rel.local
                0x0000000000032d00       0x40 build/cooja/mtype742.a(ctimer.o)
                0x0000000000032d20                ctimer_process
 .data          0x0000000000032d40        0x4 build/cooja/mtype742.a(log.o)
                0x0000000000032d40                curr_log_level_main
 *fill*         0x0000000000032d44       0x1c 
 .data.rel      0x0000000000032d60      0x138 build/cooja/mtype742.a(log.o)
                0x0000000000032d60                all_modules
 .data          0x0000000000032e98        0x0 build/cooja/mtype742.a(energest.o)
 .data          0x0000000000032e98        0x0 build/cooja/mtype742.a(etimer.o)
 *fill*         0x0000000000032e98        0x8 
 .data.rel.local
                0x0000000000032ea0       0x20 build/cooja/mtype742.a(etimer.o)
                0x0000000000032ea0                etimer_process
 .data          0x0000000000032ec0        0x0 build/cooja/mtype742.a(node-id.o)
 .data          0x0000000000032ec0        0x0 build/cooja/mtype742.a(rtimer.o)
 .data          0x0000000000032ec0        0x0 build/cooja/mtype742.a(process.o)
 .data          0x0000000000032ec0        0x0 build/cooja/mtype742.a(timer.o)
 .data          0x0000000000032ec0        0x0 build/cooja/mtype742.a(list.o)
 .data          0x0000000000032ec0        0x0 build/cooja/mtype742.a(button-hal.o)
 .data.rel.local
                0x0000000000032ec0       0x20 build/cooja/mtype742.a(button-hal.o)
                0x0000000000032ec0                button_hal_process
 .data          0x0000000000032ee0        0x0 build/cooja/mtype742.a(serial-line.o)
 .data.rel.local
                0x0000000000032ee0       0x20 build/cooja/mtype742.a(serial-line.o)
                0x0000000000032ee0                serial_line_process
 .data          0x0000000000032f00        0x0 build/cooja/mtype742.a(gpio-hal.o)
 .data.rel.local
                0x0000000000032f00        0x8 build/cooja/mtype742.a(gpio-hal.o)
 .data          0x0000000000032f08        0x0 build/cooja/mtype742.a(queuebuf.o)
 *fill*         0x0000000000032f08        0x8 
 .data.rel.local
                0x0000000000032f10       0x38 build/cooja/mtype742.a(queuebuf.o)
 .data          0x0000000000032f48        0x0 build/cooja/mtype742.a(packetbuf.o)
 .data.rel.local
                0x0000000000032f48        0x8 build/cooja/mtype742.a(packetbuf.o)
 .data          0x0000000000032f50        0x0 build/cooja/mtype742.a(netstack.o)
 .data.rel.local
                0x0000000000032f50        0x8 build/cooja/mtype742.a(netstack.o)
 .data          0x0000000000032f58        0x0 build/cooja/mtype742.a(linkaddr.o)
 .data          0x0000000000032f58        0x0 build/cooja/mtype742.a(csma.o)
 .data          0x0000000000032f58        0x0 build/cooja/mtype742.a(csma-output.o)
 *fill*         0x0000000000032f58        0x8 
 .data.rel.local
                0x0000000000032f60       0x60 build/cooja/mtype742.a(csma-output.o)
 .data          0x0000000000032fc0        0x0 build/cooja/mtype742.a(uip-ds6.o)
 .data          0x0000000000032fc0        0x0 build/cooja/mtype742.a(uiplib.o)
 .data          0x0000000000032fc0        0x0 build/cooja/mtype742.a(tcpip.o)
 .data.rel.local
                0x0000000000032fc0       0x20 build/cooja/mtype742.a(tcpip.o)
                0x0000000000032fc0                tcpip_process
 .data          0x0000000000032fe0        0x0 build/cooja/mtype742.a(uip-ds6-route.o)
 .data.rel.local
                0x0000000000032fe0       0x28 build/cooja/mtype742.a(uip-ds6-route.o)
 .data          0x0000000000033008        0x0 build/cooja/mtype742.a(uip-ds6-nbr.o)
 *fill*         0x0000000000033008        0x8 
 .data.rel.local
                0x0000000000033010       0x20 build/cooja/mtype742.a(uip-ds6-nbr.o)
 .data          0x0000000000033030        0x0 build/cooja/mtype742.a(uip6.o)
 .data          0x0000000000033030        0x0 build/cooja/mtype742.a(uip-nd6.o)
 .data.rel.local
                0x0000000000033030       0x18 build/cooja/mtype742.a(uip-nd6.o)
 .data          0x0000000000033048        0x0 build/cooja/mtype742.a(simple-udp.o)
 *fill*         0x0000000000033048       0x18 
 .data.rel.local
                0x0000000000033060       0x20 build/cooja/mtype742.a(simple-udp.o)
                0x0000000000033060                simple_udp_process
 .data          0x0000000000033080        0x0 build/cooja/mtype742.a(sicslowpan.o)
 .data          0x0000000000033080        0x0 build/cooja/mtype742.a(rpl.o)
 .data          0x0000000000033080        0x0 build/cooja/mtype742.a(rpl-dag.o)
 .data          0x0000000000033080        0x0 build/cooja/mtype742.a(rpl-dag-root.o)
 .data          0x0000000000033080        0x0 build/cooja/mtype742.a(watchdog.o)
 .data          0x0000000000033080        0x0 build/cooja/mtype742.a(int-master.o)
 .data          0x0000000000033080        0x0 build/cooja/mtype742.a(stimer.o)
 .data          0x0000000000033080        0x0 build/cooja/mtype742.a(memb.o)
 .data          0x0000000000033080        0x0 build/cooja/mtype742.a(assert.o)
 .data          0x0000000000033080        0x0 build/cooja/mtype742.a(ringbuf.o)
 .data          0x0000000000033080        0x0 build/cooja/mtype742.a(nbr-table.o)
 .data.rel.local
                0x0000000000033080       0x20 build/cooja/mtype742.a(nbr-table.o)
 .data          0x00000000000330a0        0x0 build/cooja/mtype742.a(link-stats.o)
 .data.rel.local
                0x00000000000330a0       0x20 build/cooja/mtype742.a(link-stats.o)
 .data          0x00000000000330c0        0x0 build/cooja/mtype742.a(mac-sequence.o)
 .data          0x00000000000330c0        0x0 build/cooja/mtype742.a(mac.o)
 .data          0x00000000000330c0        0x0 build/cooja/mtype742.a(framer-802154.o)
 .data          0x00000000000330c0        0x2 build/cooja/mtype742.a(frame802154.o)
 .data          0x00000000000330c2        0x0 build/cooja/mtype742.a(csma-security.o)
 .data          0x00000000000330c2        0x0 build/cooja/mtype742.a(uipbuf.o)
 .data          0x00000000000330c2        0x0 build/cooja/mtype742.a(uip-icmp6.o)
 *fill*         0x00000000000330c2        0xe 
 .data.rel.local
                0x00000000000330d0       0x48 build/cooja/mtype742.a(uip-icmp6.o)
 .data          0x0000000000033118        0x0 build/cooja/mtype742.a(uip-sr.o)
 *fill*         0x0000000000033118        0x8 
 .data.rel.local
                0x0000000000033120       0x28 build/cooja/mtype742.a(uip-sr.o)
 .data          0x0000000000033148        0x0 build/cooja/mtype742.a(uip-packetqueue)
 *fill*         0x0000000000033148        0x8 
 .data.rel.local
                0x0000000000033150       0x18 build/cooja/mtype742.a(uip-packetqueue)
 .data          0x0000000000033168        0x0 build/cooja/mtype742.a(uip-udp-packet.)
 .data          0x0000000000033168        0x0 build/cooja/mtype742.a(rpl-icmp6.o)
 *fill*         0x0000000000033168        0x8 
 .data.rel.local
                0x0000000000033170       0x78 build/cooja/mtype742.a(rpl-icmp6.o)
 .data          0x00000000000331e8        0x0 build/cooja/mtype742.a(rpl-neighbor.o)
 *fill*         0x00000000000331e8        0x8 
 .data.rel.local
                0x00000000000331f0       0x20 build/cooja/mtype742.a(rpl-neighbor.o)
                0x0000000000033208                rpl_neighbors
 .data          0x0000000000033210        0x0 build/cooja/mtype742.a(rpl-timers.o)
 .data          0x0000000000033210        0x0 build/cooja/mtype742.a(rpl-ext-header.)
 .data          0x0000000000033210        0x0 build/cooja/mtype742.a(rpl-nbr-policy.)
 .data          0x0000000000033210        0x0 build/cooja/mtype742.a(rpl-mrhof.o)
 *fill*         0x0000000000033210       0x10 
 .data.rel.local
                0x0000000000033220       0x48 build/cooja/mtype742.a(rpl-mrhof.o)
                0x0000000000033220                rpl_mrhof
 .data          0x0000000000033268        0x0 /usr/lib/gcc/x86_64-linux-gnu/9/crtendS.o
 .data          0x0000000000033268        0x0 /usr/lib/gcc/x86_64-linux-gnu/9/../../../x86_64-linux-gnu/crtn.o

.tm_clone_table
                0x0000000000033268        0x0
 .tm_clone_table
                0x0000000000033268        0x0 /usr/lib/gcc/x86_64-linux-gnu/9/crtbeginS.o
 .tm_clone_table
                0x0000000000033268        0x0 /usr/lib/gcc/x86_64-linux-gnu/9/crtendS.o

.data1
 *(.data1)
                [!provide]                        PROVIDE (_edata = .)
                [!provide]                        PROVIDE (edata = .)
                0x0000000000033268                . = .
                [!provide]                        PROVIDE (__bss_start = .)

.bss            0x0000000000033280   0x5575e0
 *(.dynbss)
 .dynbss        0x0000000000033280        0x0 /usr/lib/gcc/x86_64-linux-gnu/9/../../../x86_64-linux-gnu/crti.o
 *(.bss .bss.* .gnu.linkonce.b.*)
 .bss           0x0000000000033280        0x0 /usr/lib/gcc/x86_64-linux-gnu/9/../../../x86_64-linux-gnu/crti.o
 .bss           0x0000000000033280        0x1 /usr/lib/gcc/x86_64-linux-gnu/9/crtbeginS.o
 *fill*         0x0000000000033281       0x1f 
 .bss           0x00000000000332a0       0x20 Client.o
 .bss           0x00000000000332c0     0x4070 build/cooja/mtype742.o
 .bss           0x0000000000037330        0x0 build/cooja/obj/TransferUDP.o
 .bss           0x0000000000037330        0x1 build/cooja/mtype742.a(simEnvChange.o)
                0x0000000000037330                simDontFallAsleep
 *fill*         0x0000000000037331        0x7 
 .bss           0x0000000000037338        0x8 build/cooja/mtype742.a(cooja_mt.o)
 .bss           0x0000000000037340        0x8 build/cooja/mtype742.a(cooja_mtarch.o)
 .bss           0x0000000000037348        0x0 build/cooja/mtype742.a(rtimer-arch.o)
 .bss           0x0000000000037348        0x0 build/cooja/mtype742.a(beep.o)
 .bss           0x0000000000037348        0x1 build/cooja/mtype742.a(leds-arch.o)
                0x0000000000037348                simLedsValue
 .bss           0x0000000000037349        0x0 build/cooja/mtype742.a(moteid.o)
 .bss           0x0000000000037349        0x1 build/cooja/mtype742.a(pir-sensor.o)
                0x0000000000037349                simPirValue
 *fill*         0x000000000003734a        0x6 
 .bss           0x0000000000037350        0x8 build/cooja/mtype742.a(rs232.o)
 .bss           0x0000000000037358        0x1 build/cooja/mtype742.a(vib-sensor.o)
                0x0000000000037358                simVibValue
 .bss           0x0000000000037359        0x0 build/cooja/mtype742.a(clock.o)
 *fill*         0x0000000000037359        0x7 
 .bss           0x0000000000037360     0x2020 build/cooja/mtype742.a(cooja-log.o)
 .bss           0x0000000000039380    0x7a180 build/cooja/mtype742.a(cfs-cooja.o)
                0x0000000000039380                file_size_0
                0x0000000000039384                file_size_1
                0x0000000000039388                file_size_2
                0x000000000003938c                file_size_3
                0x0000000000039390                file_size_4
                0x0000000000039394                file_size_5
                0x0000000000039398                file_size_6
                0x000000000003939c                file_size_7
                0x00000000000393a0                file_size_8
                0x00000000000393a4                file_size_9
                0x00000000000393a8                simul_files
                0x00000000000393c0                simCFSData
                0x00000000000b34e0                simCFSSize
                0x00000000000b34e4                simCFSChanged
                0x00000000000b34e8                simCFSRead
                0x00000000000b34ec                simCFSWritten
 .bss           0x00000000000b3500       0x2c build/cooja/mtype742.a(cooja-radio.o)
                0x00000000000b3500                simReceiving
                0x00000000000b3504                simInSize
                0x00000000000b3508                simLastPacketTimestamp
                0x00000000000b3510                simOutSize
 .bss           0x00000000000b352c        0xc build/cooja/mtype742.a(eeprom.o)
                0x00000000000b352c                simEEPROMChanged
                0x00000000000b3530                simEEPROMRead
                0x00000000000b3534                simEEPROMWritten
 .bss           0x00000000000b3538        0x0 build/cooja/mtype742.a(random.o)
 .bss           0x00000000000b3538        0xc build/cooja/mtype742.a(sensors.o)
 .bss           0x00000000000b3544        0x0 build/cooja/mtype742.a(leds.o)
 *fill*         0x00000000000b3544       0x1c 
 .bss           0x00000000000b3560       0x40 build/cooja/mtype742.a(gpio-hal-arch.o)
 .bss           0x00000000000b35a0        0x0 build/cooja/mtype742.a(buttons.o)
 .bss           0x00000000000b35a0        0x0 build/cooja/mtype742.a(contiki-main.o)
 .bss           0x00000000000b35a0        0x0 build/cooja/mtype742.a(autostart.o)
 .bss           0x00000000000b35a0        0x9 build/cooja/mtype742.a(ctimer.o)
 *fill*         0x00000000000b35a9        0x3 
 .bss           0x00000000000b35ac       0x2c build/cooja/mtype742.a(log.o)
                0x00000000000b35ac                curr_log_level_rpl
                0x00000000000b35b0                curr_log_level_tcpip
                0x00000000000b35b4                curr_log_level_ipv6
                0x00000000000b35b8                curr_log_level_6lowpan
                0x00000000000b35bc                curr_log_level_nullnet
                0x00000000000b35c0                curr_log_level_mac
                0x00000000000b35c4                curr_log_level_framer
                0x00000000000b35c8                curr_log_level_6top
                0x00000000000b35cc                curr_log_level_coap
                0x00000000000b35d0                curr_log_level_snmp
                0x00000000000b35d4                curr_log_level_lwm2m
 .bss           0x00000000000b35d8        0x0 build/cooja/mtype742.a(energest.o)
 .bss           0x00000000000b35d8       0x10 build/cooja/mtype742.a(etimer.o)
 .bss           0x00000000000b35e8        0x2 build/cooja/mtype742.a(node-id.o)
                0x00000000000b35e8                node_id
 *fill*         0x00000000000b35ea        0x6 
 .bss           0x00000000000b35f0        0x8 build/cooja/mtype742.a(rtimer.o)
 *fill*         0x00000000000b35f8        0x8 
 .bss           0x00000000000b3600      0x321 build/cooja/mtype742.a(process.o)
                0x00000000000b3600                process_list
                0x00000000000b3608                process_current
 .bss           0x00000000000b3921        0x0 build/cooja/mtype742.a(timer.o)
 .bss           0x00000000000b3921        0x0 build/cooja/mtype742.a(list.o)
 *fill*         0x00000000000b3921        0xf 
 .bss           0x00000000000b3930       0x28 build/cooja/mtype742.a(button-hal.o)
 *fill*         0x00000000000b3958        0x8 
 .bss           0x00000000000b3960      0x140 build/cooja/mtype742.a(serial-line.o)
 .bss           0x00000000000b3aa0        0x8 build/cooja/mtype742.a(gpio-hal.o)
 *fill*         0x00000000000b3aa8       0x18 
 .bss           0x00000000000b3ac0     0x2d80 build/cooja/mtype742.a(queuebuf.o)
 .bss           0x00000000000b6840       0xa0 build/cooja/mtype742.a(packetbuf.o)
 .bss           0x00000000000b68e0        0x8 build/cooja/mtype742.a(netstack.o)
 .bss           0x00000000000b68e8        0x0 build/cooja/mtype742.a(linkaddr.o)
 .bss           0x00000000000b68e8        0x0 build/cooja/mtype742.a(csma.o)
 *fill*         0x00000000000b68e8       0x18 
 .bss           0x00000000000b6900      0xd8a build/cooja/mtype742.a(csma-output.o)
 *fill*         0x00000000000b768a        0x6 
 .bss           0x00000000000b7690       0x40 build/cooja/mtype742.a(uip-ds6.o)
 .bss           0x00000000000b76d0        0x0 build/cooja/mtype742.a(uiplib.o)
 *fill*         0x00000000000b76d0       0x10 
 .bss           0x00000000000b76e0       0x20 build/cooja/mtype742.a(tcpip.o)
 .bss           0x00000000000b7700       0x80 build/cooja/mtype742.a(uip-ds6-route.o)
 .bss           0x00000000000b7780     0x2580 build/cooja/mtype742.a(uip-ds6-nbr.o)
 .bss           0x00000000000b9d00        0x8 build/cooja/mtype742.a(uip6.o)
                0x00000000000b9d00                uip_ext_bitmap
                0x00000000000b9d02                uip_ext_len
                0x00000000000b9d04                uip_last_proto
 .bss           0x00000000000b9d08       0x20 build/cooja/mtype742.a(uip-nd6.o)
 *fill*         0x00000000000b9d28       0x18 
 .bss           0x00000000000b9d40      0x520 build/cooja/mtype742.a(simple-udp.o)
 .bss           0x00000000000ba260      0x738 build/cooja/mtype742.a(sicslowpan.o)
 .bss           0x00000000000ba998        0x1 build/cooja/mtype742.a(rpl.o)
 .bss           0x00000000000ba999        0x0 build/cooja/mtype742.a(rpl-dag.o)
 *fill*         0x00000000000ba999        0x7 
 .bss           0x00000000000ba9a0       0x11 build/cooja/mtype742.a(rpl-dag-root.o)
 .bss           0x00000000000ba9b1        0x0 build/cooja/mtype742.a(watchdog.o)
 *fill*         0x00000000000ba9b1        0x3 
 .bss           0x00000000000ba9b4        0x4 build/cooja/mtype742.a(int-master.o)
 .bss           0x00000000000ba9b8        0x0 build/cooja/mtype742.a(stimer.o)
 .bss           0x00000000000ba9b8        0x0 build/cooja/mtype742.a(memb.o)
 .bss           0x00000000000ba9b8        0x0 build/cooja/mtype742.a(assert.o)
 .bss           0x00000000000ba9b8        0x0 build/cooja/mtype742.a(ringbuf.o)
 *fill*         0x00000000000ba9b8        0x8 
 .bss           0x00000000000ba9c0     0x16e8 build/cooja/mtype742.a(nbr-table.o)
 *fill*         0x00000000000bc0a8       0x18 
 .bss           0x00000000000bc0c0     0x12c0 build/cooja/mtype742.a(link-stats.o)
 .bss           0x00000000000bd380      0x180 build/cooja/mtype742.a(mac-sequence.o)
 .bss           0x00000000000bd500        0x0 build/cooja/mtype742.a(mac.o)
 .bss           0x00000000000bd500        0x2 build/cooja/mtype742.a(framer-802154.o)
 .bss           0x00000000000bd502        0x0 build/cooja/mtype742.a(frame802154.o)
 .bss           0x00000000000bd502        0x0 build/cooja/mtype742.a(csma-security.o)
 *fill*         0x00000000000bd502        0xe 
 .bss           0x00000000000bd510       0x20 build/cooja/mtype742.a(uipbuf.o)
 .bss           0x00000000000bd530       0x20 build/cooja/mtype742.a(uip-icmp6.o)
 *fill*         0x00000000000bd550       0x10 
 .bss           0x00000000000bd560     0x3040 build/cooja/mtype742.a(uip-sr.o)
 .bss           0x00000000000c05a0      0xad0 build/cooja/mtype742.a(uip-packetqueue)
 .bss           0x00000000000c1070        0x0 build/cooja/mtype742.a(uip-udp-packet.)
 .bss           0x00000000000c1070        0x0 build/cooja/mtype742.a(rpl-icmp6.o)
 *fill*         0x00000000000c1070       0x10 
 .bss           0x00000000000c1080     0x12c0 build/cooja/mtype742.a(rpl-neighbor.o)
 .bss           0x00000000000c2340       0x80 build/cooja/mtype742.a(rpl-timers.o)
 .bss           0x00000000000c23c0        0x0 build/cooja/mtype742.a(rpl-ext-header.)
 .bss           0x00000000000c23c0        0x0 build/cooja/mtype742.a(rpl-nbr-policy.)
 .bss           0x00000000000c23c0        0x0 build/cooja/mtype742.a(rpl-mrhof.o)
 .bss           0x00000000000c23c0        0x0 /usr/lib/gcc/x86_64-linux-gnu/9/crtendS.o
 .bss           0x00000000000c23c0        0x0 /usr/lib/gcc/x86_64-linux-gnu/9/../../../x86_64-linux-gnu/crtn.o
 *(COMMON)
 COMMON         0x00000000000c23c0        0xc build/cooja/mtype742.o
                0x00000000000c23c0                referenceVar
                0x00000000000c23c8                sensors_flags
 *fill*         0x00000000000c23cc        0x4 
 COMMON         0x00000000000c23d0       0x10 build/cooja/mtype742.a(simEnvChange.o)
                0x00000000000c23d0                simEtimerPending
                0x00000000000c23d4                simProcessRunValue
                0x00000000000c23d8                simEtimerNextExpirationTime
 COMMON         0x00000000000c23e0       0x18 build/cooja/mtype742.a(rtimer-arch.o)
                0x00000000000c23e0                simRtimerPending
                0x00000000000c23e8                simRtimerCurrentTicks
                0x00000000000c23f0                simRtimerNextExpirationTime
 COMMON         0x00000000000c23f8        0x1 build/cooja/mtype742.a(beep.o)
                0x00000000000c23f8                simBeeped
 *fill*         0x00000000000c23f9        0x3 
 COMMON         0x00000000000c23fc        0xc build/cooja/mtype742.a(moteid.o)
                0x00000000000c23fc                simRandomSeed
                0x00000000000c2400                simMoteIDChanged
                0x00000000000c2404                simMoteID
 COMMON         0x00000000000c2408        0x2 build/cooja/mtype742.a(pir-sensor.o)
                0x00000000000c2408                simPirIsActive
                0x00000000000c2409                simPirChanged
 *fill*         0x00000000000c240a       0x16 
 COMMON         0x00000000000c2420      0x820 build/cooja/mtype742.a(rs232.o)
                0x00000000000c2420                simSerialReceivingFlag
                0x00000000000c2424                simSerialReceivingLength
                0x00000000000c2440                simSerialReceivingData
 COMMON         0x00000000000c2c40        0x2 build/cooja/mtype742.a(vib-sensor.o)
                0x00000000000c2c40                simVibChanged
                0x00000000000c2c41                simVibIsActive
 *fill*         0x00000000000c2c42        0x6 
 COMMON         0x00000000000c2c48        0x8 build/cooja/mtype742.a(clock.o)
                0x00000000000c2c48                simCurrentTime
 *fill*         0x00000000000c2c50       0x10 
 COMMON         0x00000000000c2c60     0x2020 build/cooja/mtype742.a(cooja-log.o)
                0x00000000000c2c60                simLoggedLength
                0x00000000000c2c64                simLoggedFlag
                0x00000000000c2c80                simLoggedData
 COMMON         0x00000000000c4c80   0x4c4b40 build/cooja/mtype742.a(cfs-cooja.o)
                0x00000000000c4c80                file_img_6
                0x000000000013eda0                file_img_2
                0x00000000001b8ec0                file_img_4
                0x0000000000232fe0                file_img_8
                0x00000000002ad100                file_img_0
                0x0000000000327220                file_img_3
                0x00000000003a1340                file_img_7
                0x000000000041b460                file_img_5
                0x0000000000495580                file_img_9
                0x000000000050f6a0                file_img_1
 COMMON         0x00000000005897c0       0xfd build/cooja/mtype742.a(cooja-radio.o)
                0x00000000005897c0                simOutDataBuffer
                0x0000000000589840                simInDataBuffer
 *fill*         0x00000000005898bd        0x3 
 COMMON         0x00000000005898c0      0x400 build/cooja/mtype742.a(eeprom.o)
                0x00000000005898c0                simEEPROMData
 COMMON         0x0000000000589cc0        0x1 build/cooja/mtype742.a(sensors.o)
                0x0000000000589cc0                sensors_event
 COMMON         0x0000000000589cc1        0x2 build/cooja/mtype742.a(buttons.o)
                0x0000000000589cc1                simButtonIsDown
                0x0000000000589cc2                simButtonChanged
 COMMON         0x0000000000589cc3        0x3 build/cooja/mtype742.a(button-hal.o)
                0x0000000000589cc3                button_hal_periodic_event
                0x0000000000589cc4                button_hal_press_event
                0x0000000000589cc5                button_hal_release_event
 COMMON         0x0000000000589cc6        0x1 build/cooja/mtype742.a(serial-line.o)
                0x0000000000589cc6                serial_line_event_message
 *fill*         0x0000000000589cc7        0x9 
 COMMON         0x0000000000589cd0       0x30 build/cooja/mtype742.a(packetbuf.o)
                0x0000000000589cd0                packetbuf_attrs
                0x0000000000589cf0                packetbuf_addrs
 COMMON         0x0000000000589d00        0x8 build/cooja/mtype742.a(linkaddr.o)
                0x0000000000589d00                linkaddr_node_addr
 *fill*         0x0000000000589d08       0x18 
 COMMON         0x0000000000589d20      0x1f1 build/cooja/mtype742.a(uip-ds6.o)
                0x0000000000589d20                uip_ds6_prefix_list
                0x0000000000589d80                uip_ds6_timer_periodic
                0x0000000000589da0                uip_ds6_netif_addr_list_offset
                0x0000000000589dc0                uip_ds6_if
                0x0000000000589f00                uip_ds6_timer_ra
                0x0000000000589f10                uip_ds6_addr_size
 COMMON         0x0000000000589f11        0x1 build/cooja/mtype742.a(tcpip.o)
                0x0000000000589f11                tcpip_event
 *fill*         0x0000000000589f12        0xe 
 COMMON         0x0000000000589f20      0x690 build/cooja/mtype742.a(uip6.o)
                0x0000000000589f20                uip_slen
                0x0000000000589f28                uip_lladdr
                0x0000000000589f30                uip_appdata
                0x0000000000589f38                uip_flags
                0x0000000000589f40                uip_aligned_buf
                0x000000000058a440                uip_len
                0x000000000058a448                uip_sappdata
                0x000000000058a460                uip_udp_conns
                0x000000000058a5a0                uip_udp_conn
                0x000000000058a5a8                uip_conn
 COMMON         0x000000000058a5b0       0x10 build/cooja/mtype742.a(rpl.o)
                0x000000000058a5b0                rpl_multicast_addr
 COMMON         0x000000000058a5c0      0x260 build/cooja/mtype742.a(rpl-dag.o)
                0x000000000058a5c0                curr_instance
 COMMON         0x000000000058a820       0x40 build/cooja/mtype742.a(link-stats.o)
                0x000000000058a820                periodic_timer
                0x000000000058a860                . = ALIGN ((. != 0x0)?0x8:0x1)

.lbss
 *(.dynlbss)
 *(.lbss .lbss.* .gnu.linkonce.lb.*)
 *(LARGE_COMMON)
                0x000000000058a860                . = ALIGN (0x8)
                0x000000000058a860                . = SEGMENT_START ("ldata-segment", .)

.lrodata
 *(.lrodata .lrodata.* .gnu.linkonce.lr.*)

.ldata          0x000000000058c860        0x0
 *(.ldata .ldata.* .gnu.linkonce.l.*)
                0x000000000058c860                . = ALIGN ((. != 0x0)?0x8:0x1)
                0x000000000058c860                . = ALIGN (0x8)
                [!provide]                        PROVIDE (_end = .)
                [!provide]                        PROVIDE (end = .)
                0x000000000058c860                . = DATA_SEGMENT_END (.)

.stab
 *(.stab)

.stabstr
 *(.stabstr)

.stab.excl
 *(.stab.excl)

.stab.exclstr
 *(.stab.exclstr)

.stab.index
 *(.stab.index)

.stab.indexstr
 *(.stab.indexstr)

.comment        0x0000000000000000       0x2b
 *(.comment)
 .comment       0x0000000000000000       0x2b /usr/lib/gcc/x86_64-linux-gnu/9/crtbeginS.o
                                         0x2c (size before relaxing)
 .comment       0x000000000000002b       0x2c Client.o
 .comment       0x000000000000002b       0x2c build/cooja/mtype742.o
 .comment       0x000000000000002b       0x2c build/cooja/obj/TransferUDP.o
 .comment       0x000000000000002b       0x2c build/cooja/mtype742.a(simEnvChange.o)
 .comment       0x000000000000002b       0x2c build/cooja/mtype742.a(cooja_mt.o)
 .comment       0x000000000000002b       0x2c build/cooja/mtype742.a(cooja_mtarch.o)
 .comment       0x000000000000002b       0x2c build/cooja/mtype742.a(rtimer-arch.o)
 .comment       0x000000000000002b       0x2c build/cooja/mtype742.a(beep.o)
 .comment       0x000000000000002b       0x2c build/cooja/mtype742.a(leds-arch.o)
 .comment       0x000000000000002b       0x2c build/cooja/mtype742.a(moteid.o)
 .comment       0x000000000000002b       0x2c build/cooja/mtype742.a(pir-sensor.o)
 .comment       0x000000000000002b       0x2c build/cooja/mtype742.a(rs232.o)
 .comment       0x000000000000002b       0x2c build/cooja/mtype742.a(vib-sensor.o)
 .comment       0x000000000000002b       0x2c build/cooja/mtype742.a(clock.o)
 .comment       0x000000000000002b       0x2c build/cooja/mtype742.a(cooja-log.o)
 .comment       0x000000000000002b       0x2c build/cooja/mtype742.a(cfs-cooja.o)
 .comment       0x000000000000002b       0x2c build/cooja/mtype742.a(cooja-radio.o)
 .comment       0x000000000000002b       0x2c build/cooja/mtype742.a(eeprom.o)
 .comment       0x000000000000002b       0x2c build/cooja/mtype742.a(random.o)
 .comment       0x000000000000002b       0x2c build/cooja/mtype742.a(sensors.o)
 .comment       0x000000000000002b       0x2c build/cooja/mtype742.a(leds.o)
 .comment       0x000000000000002b       0x2c build/cooja/mtype742.a(gpio-hal-arch.o)
 .comment       0x000000000000002b       0x2c build/cooja/mtype742.a(buttons.o)
 .comment       0x000000000000002b       0x2c build/cooja/mtype742.a(contiki-main.o)
 .comment       0x000000000000002b       0x2c build/cooja/mtype742.a(autostart.o)
 .comment       0x000000000000002b       0x2c build/cooja/mtype742.a(ctimer.o)
 .comment       0x000000000000002b       0x2c build/cooja/mtype742.a(log.o)
 .comment       0x000000000000002b       0x2c build/cooja/mtype742.a(energest.o)
 .comment       0x000000000000002b       0x2c build/cooja/mtype742.a(etimer.o)
 .comment       0x000000000000002b       0x2c build/cooja/mtype742.a(node-id.o)
 .comment       0x000000000000002b       0x2c build/cooja/mtype742.a(rtimer.o)
 .comment       0x000000000000002b       0x2c build/cooja/mtype742.a(process.o)
 .comment       0x000000000000002b       0x2c build/cooja/mtype742.a(timer.o)
 .comment       0x000000000000002b       0x2c build/cooja/mtype742.a(list.o)
 .comment       0x000000000000002b       0x2c build/cooja/mtype742.a(button-hal.o)
 .comment       0x000000000000002b       0x2c build/cooja/mtype742.a(serial-line.o)
 .comment       0x000000000000002b       0x2c build/cooja/mtype742.a(gpio-hal.o)
 .comment       0x000000000000002b       0x2c build/cooja/mtype742.a(queuebuf.o)
 .comment       0x000000000000002b       0x2c build/cooja/mtype742.a(packetbuf.o)
 .comment       0x000000000000002b       0x2c build/cooja/mtype742.a(netstack.o)
 .comment       0x000000000000002b       0x2c build/cooja/mtype742.a(linkaddr.o)
 .comment       0x000000000000002b       0x2c build/cooja/mtype742.a(csma.o)
 .comment       0x000000000000002b       0x2c build/cooja/mtype742.a(csma-output.o)
 .comment       0x000000000000002b       0x2c build/cooja/mtype742.a(uip-ds6.o)
 .comment       0x000000000000002b       0x2c build/cooja/mtype742.a(uiplib.o)
 .comment       0x000000000000002b       0x2c build/cooja/mtype742.a(tcpip.o)
 .comment       0x000000000000002b       0x2c build/cooja/mtype742.a(uip-ds6-route.o)
 .comment       0x000000000000002b       0x2c build/cooja/mtype742.a(uip-ds6-nbr.o)
 .comment       0x000000000000002b       0x2c build/cooja/mtype742.a(uip6.o)
 .comment       0x000000000000002b       0x2c build/cooja/mtype742.a(uip-nd6.o)
 .comment       0x000000000000002b       0x2c build/cooja/mtype742.a(simple-udp.o)
 .comment       0x000000000000002b       0x2c build/cooja/mtype742.a(sicslowpan.o)
 .comment       0x000000000000002b       0x2c build/cooja/mtype742.a(rpl.o)
 .comment       0x000000000000002b       0x2c build/cooja/mtype742.a(rpl-dag.o)
 .comment       0x000000000000002b       0x2c build/cooja/mtype742.a(rpl-dag-root.o)
 .comment       0x000000000000002b       0x2c build/cooja/mtype742.a(watchdog.o)
 .comment       0x000000000000002b       0x2c build/cooja/mtype742.a(int-master.o)
 .comment       0x000000000000002b       0x2c build/cooja/mtype742.a(stimer.o)
 .comment       0x000000000000002b       0x2c build/cooja/mtype742.a(memb.o)
 .comment       0x000000000000002b       0x2c build/cooja/mtype742.a(assert.o)
 .comment       0x000000000000002b       0x2c build/cooja/mtype742.a(ringbuf.o)
 .comment       0x000000000000002b       0x2c build/cooja/mtype742.a(nbr-table.o)
 .comment       0x000000000000002b       0x2c build/cooja/mtype742.a(link-stats.o)
 .comment       0x000000000000002b       0x2c build/cooja/mtype742.a(mac-sequence.o)
 .comment       0x000000000000002b       0x2c build/cooja/mtype742.a(mac.o)
 .comment       0x000000000000002b       0x2c build/cooja/mtype742.a(framer-802154.o)
 .comment       0x000000000000002b       0x2c build/cooja/mtype742.a(frame802154.o)
 .comment       0x000000000000002b       0x2c build/cooja/mtype742.a(csma-security.o)
 .comment       0x000000000000002b       0x2c build/cooja/mtype742.a(uipbuf.o)
 .comment       0x000000000000002b       0x2c build/cooja/mtype742.a(uip-icmp6.o)
 .comment       0x000000000000002b       0x2c build/cooja/mtype742.a(uip-sr.o)
 .comment       0x000000000000002b       0x2c build/cooja/mtype742.a(uip-packetqueue)
 .comment       0x000000000000002b       0x2c build/cooja/mtype742.a(uip-udp-packet.)
 .comment       0x000000000000002b       0x2c build/cooja/mtype742.a(rpl-icmp6.o)
 .comment       0x000000000000002b       0x2c build/cooja/mtype742.a(rpl-neighbor.o)
 .comment       0x000000000000002b       0x2c build/cooja/mtype742.a(rpl-timers.o)
 .comment       0x000000000000002b       0x2c build/cooja/mtype742.a(rpl-ext-header.)
 .comment       0x000000000000002b       0x2c build/cooja/mtype742.a(rpl-nbr-policy.)
 .comment       0x000000000000002b       0x2c build/cooja/mtype742.a(rpl-mrhof.o)
 .comment       0x000000000000002b       0x2c /usr/lib/gcc/x86_64-linux-gnu/9/crtendS.o

.gnu.build.attributes
 *(.gnu.build.attributes .gnu.build.attributes.*)

.debug
 *(.debug)

.line
 *(.line)

.debug_srcinfo
 *(.debug_srcinfo)

.debug_sfnames
 *(.debug_sfnames)

.debug_aranges  0x0000000000000000      0xed0
 *(.debug_aranges)
 .debug_aranges
                0x0000000000000000       0x30 Client.o
 .debug_aranges
                0x0000000000000030       0x30 build/cooja/mtype742.o
 .debug_aranges
                0x0000000000000060       0x30 build/cooja/obj/TransferUDP.o
 .debug_aranges
                0x0000000000000090       0x30 build/cooja/mtype742.a(simEnvChange.o)
 .debug_aranges
                0x00000000000000c0       0x30 build/cooja/mtype742.a(cooja_mt.o)
 .debug_aranges
                0x00000000000000f0       0x30 build/cooja/mtype742.a(cooja_mtarch.o)
 .debug_aranges
                0x0000000000000120       0x30 build/cooja/mtype742.a(rtimer-arch.o)
 .debug_aranges
                0x0000000000000150       0x30 build/cooja/mtype742.a(beep.o)
 .debug_aranges
                0x0000000000000180       0x30 build/cooja/mtype742.a(leds-arch.o)
 .debug_aranges
                0x00000000000001b0       0x30 build/cooja/mtype742.a(moteid.o)
 .debug_aranges
                0x00000000000001e0       0x30 build/cooja/mtype742.a(pir-sensor.o)
 .debug_aranges
                0x0000000000000210       0x30 build/cooja/mtype742.a(rs232.o)
 .debug_aranges
                0x0000000000000240       0x30 build/cooja/mtype742.a(vib-sensor.o)
 .debug_aranges
                0x0000000000000270       0x30 build/cooja/mtype742.a(clock.o)
 .debug_aranges
                0x00000000000002a0       0x30 build/cooja/mtype742.a(cooja-log.o)
 .debug_aranges
                0x00000000000002d0       0x30 build/cooja/mtype742.a(cfs-cooja.o)
 .debug_aranges
                0x0000000000000300       0x30 build/cooja/mtype742.a(cooja-radio.o)
 .debug_aranges
                0x0000000000000330       0x30 build/cooja/mtype742.a(eeprom.o)
 .debug_aranges
                0x0000000000000360       0x30 build/cooja/mtype742.a(random.o)
 .debug_aranges
                0x0000000000000390       0x30 build/cooja/mtype742.a(sensors.o)
 .debug_aranges
                0x00000000000003c0       0x30 build/cooja/mtype742.a(leds.o)
 .debug_aranges
                0x00000000000003f0       0x30 build/cooja/mtype742.a(gpio-hal-arch.o)
 .debug_aranges
                0x0000000000000420       0x30 build/cooja/mtype742.a(buttons.o)
 .debug_aranges
                0x0000000000000450       0x30 build/cooja/mtype742.a(contiki-main.o)
 .debug_aranges
                0x0000000000000480       0x30 build/cooja/mtype742.a(autostart.o)
 .debug_aranges
                0x00000000000004b0       0x30 build/cooja/mtype742.a(ctimer.o)
 .debug_aranges
                0x00000000000004e0       0x30 build/cooja/mtype742.a(log.o)
 .debug_aranges
                0x0000000000000510       0x30 build/cooja/mtype742.a(energest.o)
 .debug_aranges
                0x0000000000000540       0x30 build/cooja/mtype742.a(etimer.o)
 .debug_aranges
                0x0000000000000570       0x30 build/cooja/mtype742.a(node-id.o)
 .debug_aranges
                0x00000000000005a0       0x30 build/cooja/mtype742.a(rtimer.o)
 .debug_aranges
                0x00000000000005d0       0x30 build/cooja/mtype742.a(process.o)
 .debug_aranges
                0x0000000000000600       0x30 build/cooja/mtype742.a(timer.o)
 .debug_aranges
                0x0000000000000630       0x30 build/cooja/mtype742.a(list.o)
 .debug_aranges
                0x0000000000000660       0x30 build/cooja/mtype742.a(button-hal.o)
 .debug_aranges
                0x0000000000000690       0x30 build/cooja/mtype742.a(serial-line.o)
 .debug_aranges
                0x00000000000006c0       0x30 build/cooja/mtype742.a(gpio-hal.o)
 .debug_aranges
                0x00000000000006f0       0x30 build/cooja/mtype742.a(queuebuf.o)
 .debug_aranges
                0x0000000000000720       0x30 build/cooja/mtype742.a(packetbuf.o)
 .debug_aranges
                0x0000000000000750       0x30 build/cooja/mtype742.a(netstack.o)
 .debug_aranges
                0x0000000000000780       0x30 build/cooja/mtype742.a(linkaddr.o)
 .debug_aranges
                0x00000000000007b0       0x30 build/cooja/mtype742.a(csma.o)
 .debug_aranges
                0x00000000000007e0       0x30 build/cooja/mtype742.a(csma-output.o)
 .debug_aranges
                0x0000000000000810       0x30 build/cooja/mtype742.a(uip-ds6.o)
 .debug_aranges
                0x0000000000000840       0x30 build/cooja/mtype742.a(uiplib.o)
 .debug_aranges
                0x0000000000000870       0x30 build/cooja/mtype742.a(tcpip.o)
 .debug_aranges
                0x00000000000008a0       0x30 build/cooja/mtype742.a(uip-ds6-route.o)
 .debug_aranges
                0x00000000000008d0       0x30 build/cooja/mtype742.a(uip-ds6-nbr.o)
 .debug_aranges
                0x0000000000000900       0x30 build/cooja/mtype742.a(uip6.o)
 .debug_aranges
                0x0000000000000930       0x30 build/cooja/mtype742.a(uip-nd6.o)
 .debug_aranges
                0x0000000000000960       0x30 build/cooja/mtype742.a(simple-udp.o)
 .debug_aranges
                0x0000000000000990       0x30 build/cooja/mtype742.a(sicslowpan.o)
 .debug_aranges
                0x00000000000009c0       0x30 build/cooja/mtype742.a(rpl.o)
 .debug_aranges
                0x00000000000009f0       0x30 build/cooja/mtype742.a(rpl-dag.o)
 .debug_aranges
                0x0000000000000a20       0x30 build/cooja/mtype742.a(rpl-dag-root.o)
 .debug_aranges
                0x0000000000000a50       0x30 build/cooja/mtype742.a(watchdog.o)
 .debug_aranges
                0x0000000000000a80       0x30 build/cooja/mtype742.a(int-master.o)
 .debug_aranges
                0x0000000000000ab0       0x30 build/cooja/mtype742.a(stimer.o)
 .debug_aranges
                0x0000000000000ae0       0x30 build/cooja/mtype742.a(memb.o)
 .debug_aranges
                0x0000000000000b10       0x30 build/cooja/mtype742.a(assert.o)
 .debug_aranges
                0x0000000000000b40       0x30 build/cooja/mtype742.a(ringbuf.o)
 .debug_aranges
                0x0000000000000b70       0x30 build/cooja/mtype742.a(nbr-table.o)
 .debug_aranges
                0x0000000000000ba0       0x30 build/cooja/mtype742.a(link-stats.o)
 .debug_aranges
                0x0000000000000bd0       0x30 build/cooja/mtype742.a(mac-sequence.o)
 .debug_aranges
                0x0000000000000c00       0x30 build/cooja/mtype742.a(mac.o)
 .debug_aranges
                0x0000000000000c30       0x30 build/cooja/mtype742.a(framer-802154.o)
 .debug_aranges
                0x0000000000000c60       0x30 build/cooja/mtype742.a(frame802154.o)
 .debug_aranges
                0x0000000000000c90       0x30 build/cooja/mtype742.a(csma-security.o)
 .debug_aranges
                0x0000000000000cc0       0x30 build/cooja/mtype742.a(uipbuf.o)
 .debug_aranges
                0x0000000000000cf0       0x30 build/cooja/mtype742.a(uip-icmp6.o)
 .debug_aranges
                0x0000000000000d20       0x30 build/cooja/mtype742.a(uip-sr.o)
 .debug_aranges
                0x0000000000000d50       0x30 build/cooja/mtype742.a(uip-packetqueue)
 .debug_aranges
                0x0000000000000d80       0x30 build/cooja/mtype742.a(uip-udp-packet.)
 .debug_aranges
                0x0000000000000db0       0x30 build/cooja/mtype742.a(rpl-icmp6.o)
 .debug_aranges
                0x0000000000000de0       0x30 build/cooja/mtype742.a(rpl-neighbor.o)
 .debug_aranges
                0x0000000000000e10       0x30 build/cooja/mtype742.a(rpl-timers.o)
 .debug_aranges
                0x0000000000000e40       0x30 build/cooja/mtype742.a(rpl-ext-header.)
 .debug_aranges
                0x0000000000000e70       0x30 build/cooja/mtype742.a(rpl-nbr-policy.)
 .debug_aranges
                0x0000000000000ea0       0x30 build/cooja/mtype742.a(rpl-mrhof.o)

.debug_pubnames
 *(.debug_pubnames)

.debug_info     0x0000000000000000    0x473c6
 *(.debug_info .gnu.linkonce.wi.*)
 .debug_info    0x0000000000000000     0x1341 Client.o
 .debug_info    0x0000000000001341     0x4439 build/cooja/mtype742.o
 .debug_info    0x000000000000577a     0x156d build/cooja/obj/TransferUDP.o
 .debug_info    0x0000000000006ce7      0x529 build/cooja/mtype742.a(simEnvChange.o)
 .debug_info    0x0000000000007210      0x31b build/cooja/mtype742.a(cooja_mt.o)
 .debug_info    0x000000000000752b      0x618 build/cooja/mtype742.a(cooja_mtarch.o)
 .debug_info    0x0000000000007b43      0x340 build/cooja/mtype742.a(rtimer-arch.o)
 .debug_info    0x0000000000007e83      0x3ba build/cooja/mtype742.a(beep.o)
 .debug_info    0x000000000000823d      0x336 build/cooja/mtype742.a(leds-arch.o)
 .debug_info    0x0000000000008573      0x29b build/cooja/mtype742.a(moteid.o)
 .debug_info    0x000000000000880e      0x3e4 build/cooja/mtype742.a(pir-sensor.o)
 .debug_info    0x0000000000008bf2      0x674 build/cooja/mtype742.a(rs232.o)
 .debug_info    0x0000000000009266      0x3e4 build/cooja/mtype742.a(vib-sensor.o)
 .debug_info    0x000000000000964a      0x2e7 build/cooja/mtype742.a(clock.o)
 .debug_info    0x0000000000009931      0x742 build/cooja/mtype742.a(cooja-log.o)
 .debug_info    0x000000000000a073      0xa1f build/cooja/mtype742.a(cfs-cooja.o)
 .debug_info    0x000000000000aa92     0x14c0 build/cooja/mtype742.a(cooja-radio.o)
 .debug_info    0x000000000000bf52      0x37e build/cooja/mtype742.a(eeprom.o)
 .debug_info    0x000000000000c2d0       0xc3 build/cooja/mtype742.a(random.o)
 .debug_info    0x000000000000c393      0x46f build/cooja/mtype742.a(sensors.o)
 .debug_info    0x000000000000c802      0x453 build/cooja/mtype742.a(leds.o)
 .debug_info    0x000000000000cc55      0xd9b build/cooja/mtype742.a(gpio-hal-arch.o)
 .debug_info    0x000000000000d9f0      0xd92 build/cooja/mtype742.a(buttons.o)
 .debug_info    0x000000000000e782     0x2224 build/cooja/mtype742.a(contiki-main.o)
 .debug_info    0x00000000000109a6      0x24b build/cooja/mtype742.a(autostart.o)
 .debug_info    0x0000000000010bf1      0x591 build/cooja/mtype742.a(ctimer.o)
 .debug_info    0x0000000000011182      0xd37 build/cooja/mtype742.a(log.o)
 .debug_info    0x0000000000011eb9      0x23d build/cooja/mtype742.a(energest.o)
 .debug_info    0x00000000000120f6      0x5d1 build/cooja/mtype742.a(etimer.o)
 .debug_info    0x00000000000126c7      0x658 build/cooja/mtype742.a(node-id.o)
 .debug_info    0x0000000000012d1f      0x355 build/cooja/mtype742.a(rtimer.o)
 .debug_info    0x0000000000013074      0x85b build/cooja/mtype742.a(process.o)
 .debug_info    0x00000000000138cf      0x2ff build/cooja/mtype742.a(timer.o)
 .debug_info    0x0000000000013bce      0x574 build/cooja/mtype742.a(list.o)
 .debug_info    0x0000000000014142      0x7e8 build/cooja/mtype742.a(button-hal.o)
 .debug_info    0x000000000001492a      0x3d1 build/cooja/mtype742.a(serial-line.o)
 .debug_info    0x0000000000014cfb      0xb8e build/cooja/mtype742.a(gpio-hal.o)
 .debug_info    0x0000000000015889     0x1761 build/cooja/mtype742.a(queuebuf.o)
 .debug_info    0x0000000000016fea     0x174e build/cooja/mtype742.a(packetbuf.o)
 .debug_info    0x0000000000018738      0x7bd build/cooja/mtype742.a(netstack.o)
 .debug_info    0x0000000000018ef5      0x32b build/cooja/mtype742.a(linkaddr.o)
 .debug_info    0x0000000000019220      0xfaf build/cooja/mtype742.a(csma.o)
 .debug_info    0x000000000001a1cf     0x16fc build/cooja/mtype742.a(csma-output.o)
 .debug_info    0x000000000001b8cb     0x185a build/cooja/mtype742.a(uip-ds6.o)
 .debug_info    0x000000000001d125      0xba0 build/cooja/mtype742.a(uiplib.o)
 .debug_info    0x000000000001dcc5     0x1ba1 build/cooja/mtype742.a(tcpip.o)
 .debug_info    0x000000000001f866     0x17d8 build/cooja/mtype742.a(uip-ds6-route.o)
 .debug_info    0x000000000002103e     0x19b4 build/cooja/mtype742.a(uip-ds6-nbr.o)
 .debug_info    0x00000000000229f2     0x1cfa build/cooja/mtype742.a(uip6.o)
 .debug_info    0x00000000000246ec     0x15b2 build/cooja/mtype742.a(uip-nd6.o)
 .debug_info    0x0000000000025c9e     0x1642 build/cooja/mtype742.a(simple-udp.o)
 .debug_info    0x00000000000272e0     0x2667 build/cooja/mtype742.a(sicslowpan.o)
 .debug_info    0x0000000000029947     0x1e18 build/cooja/mtype742.a(rpl.o)
 .debug_info    0x000000000002b75f     0x1f43 build/cooja/mtype742.a(rpl-dag.o)
 .debug_info    0x000000000002d6a2     0x1c3d build/cooja/mtype742.a(rpl-dag-root.o)
 .debug_info    0x000000000002f2df      0x255 build/cooja/mtype742.a(watchdog.o)
 .debug_info    0x000000000002f534      0x2ab build/cooja/mtype742.a(int-master.o)
 .debug_info    0x000000000002f7df      0x320 build/cooja/mtype742.a(stimer.o)
 .debug_info    0x000000000002faff      0x379 build/cooja/mtype742.a(memb.o)
 .debug_info    0x000000000002fe78      0x475 build/cooja/mtype742.a(assert.o)
 .debug_info    0x00000000000302ed      0x359 build/cooja/mtype742.a(ringbuf.o)
 .debug_info    0x0000000000030646     0x18e6 build/cooja/mtype742.a(nbr-table.o)
 .debug_info    0x0000000000031f2c     0x1272 build/cooja/mtype742.a(link-stats.o)
 .debug_info    0x000000000003319e     0x1352 build/cooja/mtype742.a(mac-sequence.o)
 .debug_info    0x00000000000344f0      0x9f7 build/cooja/mtype742.a(mac.o)
 .debug_info    0x0000000000034ee7      0xdeb build/cooja/mtype742.a(framer-802154.o)
 .debug_info    0x0000000000035cd2      0xd1b build/cooja/mtype742.a(frame802154.o)
 .debug_info    0x00000000000369ed      0xe8d build/cooja/mtype742.a(csma-security.o)
 .debug_info    0x000000000003787a      0xb69 build/cooja/mtype742.a(uipbuf.o)
 .debug_info    0x00000000000383e3     0x1a05 build/cooja/mtype742.a(uip-icmp6.o)
 .debug_info    0x0000000000039de8     0x1777 build/cooja/mtype742.a(uip-sr.o)
 .debug_info    0x000000000003b55f      0xbf7 build/cooja/mtype742.a(uip-packetqueue)
 .debug_info    0x000000000003c156      0x774 build/cooja/mtype742.a(uip-udp-packet.)
 .debug_info    0x000000000003c8ca     0x1fa7 build/cooja/mtype742.a(rpl-icmp6.o)
 .debug_info    0x000000000003e871     0x1d3c build/cooja/mtype742.a(rpl-neighbor.o)
 .debug_info    0x00000000000405ad     0x1c99 build/cooja/mtype742.a(rpl-timers.o)
 .debug_info    0x0000000000042246     0x2181 build/cooja/mtype742.a(rpl-ext-header.)
 .debug_info    0x00000000000443c7     0x16c7 build/cooja/mtype742.a(rpl-nbr-policy.)
 .debug_info    0x0000000000045a8e     0x1938 build/cooja/mtype742.a(rpl-mrhof.o)

.debug_abbrev   0x0000000000000000     0xbb65
 *(.debug_abbrev)
 .debug_abbrev  0x0000000000000000      0x267 Client.o
 .debug_abbrev  0x0000000000000267      0x38f build/cooja/mtype742.o
 .debug_abbrev  0x00000000000005f6      0x294 build/cooja/obj/TransferUDP.o
 .debug_abbrev  0x000000000000088a      0x185 build/cooja/mtype742.a(simEnvChange.o)
 .debug_abbrev  0x0000000000000a0f      0x1a8 build/cooja/mtype742.a(cooja_mt.o)
 .debug_abbrev  0x0000000000000bb7      0x1e6 build/cooja/mtype742.a(cooja_mtarch.o)
 .debug_abbrev  0x0000000000000d9d      0x186 build/cooja/mtype742.a(rtimer-arch.o)
 .debug_abbrev  0x0000000000000f23      0x1b1 build/cooja/mtype742.a(beep.o)
 .debug_abbrev  0x00000000000010d4      0x178 build/cooja/mtype742.a(leds-arch.o)
 .debug_abbrev  0x000000000000124c      0x166 build/cooja/mtype742.a(moteid.o)
 .debug_abbrev  0x00000000000013b2      0x1be build/cooja/mtype742.a(pir-sensor.o)
 .debug_abbrev  0x0000000000001570      0x217 build/cooja/mtype742.a(rs232.o)
 .debug_abbrev  0x0000000000001787      0x1be build/cooja/mtype742.a(vib-sensor.o)
 .debug_abbrev  0x0000000000001945      0x1b1 build/cooja/mtype742.a(clock.o)
 .debug_abbrev  0x0000000000001af6      0x247 build/cooja/mtype742.a(cooja-log.o)
 .debug_abbrev  0x0000000000001d3d      0x213 build/cooja/mtype742.a(cfs-cooja.o)
 .debug_abbrev  0x0000000000001f50      0x3e4 build/cooja/mtype742.a(cooja-radio.o)
 .debug_abbrev  0x0000000000002334      0x1a0 build/cooja/mtype742.a(eeprom.o)
 .debug_abbrev  0x00000000000024d4       0x71 build/cooja/mtype742.a(random.o)
 .debug_abbrev  0x0000000000002545      0x202 build/cooja/mtype742.a(sensors.o)
 .debug_abbrev  0x0000000000002747      0x1a5 build/cooja/mtype742.a(leds.o)
 .debug_abbrev  0x00000000000028ec      0x280 build/cooja/mtype742.a(gpio-hal-arch.o)
 .debug_abbrev  0x0000000000002b6c      0x242 build/cooja/mtype742.a(buttons.o)
 .debug_abbrev  0x0000000000002dae      0x26d build/cooja/mtype742.a(contiki-main.o)
 .debug_abbrev  0x000000000000301b      0x143 build/cooja/mtype742.a(autostart.o)
 .debug_abbrev  0x000000000000315e      0x1e4 build/cooja/mtype742.a(ctimer.o)
 .debug_abbrev  0x0000000000003342      0x251 build/cooja/mtype742.a(log.o)
 .debug_abbrev  0x0000000000003593      0x121 build/cooja/mtype742.a(energest.o)
 .debug_abbrev  0x00000000000036b4      0x257 build/cooja/mtype742.a(etimer.o)
 .debug_abbrev  0x000000000000390b      0x1a4 build/cooja/mtype742.a(node-id.o)
 .debug_abbrev  0x0000000000003aaf      0x1ca build/cooja/mtype742.a(rtimer.o)
 .debug_abbrev  0x0000000000003c79      0x2b3 build/cooja/mtype742.a(process.o)
 .debug_abbrev  0x0000000000003f2c      0x194 build/cooja/mtype742.a(timer.o)
 .debug_abbrev  0x00000000000040c0      0x20c build/cooja/mtype742.a(list.o)
 .debug_abbrev  0x00000000000042cc      0x28a build/cooja/mtype742.a(button-hal.o)
 .debug_abbrev  0x0000000000004556      0x1d1 build/cooja/mtype742.a(serial-line.o)
 .debug_abbrev  0x0000000000004727      0x21d build/cooja/mtype742.a(gpio-hal.o)
 .debug_abbrev  0x0000000000004944      0x304 build/cooja/mtype742.a(queuebuf.o)
 .debug_abbrev  0x0000000000004c48      0x31f build/cooja/mtype742.a(packetbuf.o)
 .debug_abbrev  0x0000000000004f67      0x233 build/cooja/mtype742.a(netstack.o)
 .debug_abbrev  0x000000000000519a      0x197 build/cooja/mtype742.a(linkaddr.o)
 .debug_abbrev  0x0000000000005331      0x2b9 build/cooja/mtype742.a(csma.o)
 .debug_abbrev  0x00000000000055ea      0x323 build/cooja/mtype742.a(csma-output.o)
 .debug_abbrev  0x000000000000590d      0x366 build/cooja/mtype742.a(uip-ds6.o)
 .debug_abbrev  0x0000000000005c73      0x22d build/cooja/mtype742.a(uiplib.o)
 .debug_abbrev  0x0000000000005ea0      0x436 build/cooja/mtype742.a(tcpip.o)
 .debug_abbrev  0x00000000000062d6      0x37e build/cooja/mtype742.a(uip-ds6-route.o)
 .debug_abbrev  0x0000000000006654      0x330 build/cooja/mtype742.a(uip-ds6-nbr.o)
 .debug_abbrev  0x0000000000006984      0x34b build/cooja/mtype742.a(uip6.o)
 .debug_abbrev  0x0000000000006ccf      0x2ac build/cooja/mtype742.a(uip-nd6.o)
 .debug_abbrev  0x0000000000006f7b      0x2a1 build/cooja/mtype742.a(simple-udp.o)
 .debug_abbrev  0x000000000000721c      0x39c build/cooja/mtype742.a(sicslowpan.o)
 .debug_abbrev  0x00000000000075b8      0x365 build/cooja/mtype742.a(rpl.o)
 .debug_abbrev  0x000000000000791d      0x430 build/cooja/mtype742.a(rpl-dag.o)
 .debug_abbrev  0x0000000000007d4d      0x2d7 build/cooja/mtype742.a(rpl-dag-root.o)
 .debug_abbrev  0x0000000000008024      0x11f build/cooja/mtype742.a(watchdog.o)
 .debug_abbrev  0x0000000000008143      0x18e build/cooja/mtype742.a(int-master.o)
 .debug_abbrev  0x00000000000082d1      0x183 build/cooja/mtype742.a(stimer.o)
 .debug_abbrev  0x0000000000008454      0x178 build/cooja/mtype742.a(memb.o)
 .debug_abbrev  0x00000000000085cc      0x157 build/cooja/mtype742.a(assert.o)
 .debug_abbrev  0x0000000000008723      0x178 build/cooja/mtype742.a(ringbuf.o)
 .debug_abbrev  0x000000000000889b      0x3a9 build/cooja/mtype742.a(nbr-table.o)
 .debug_abbrev  0x0000000000008c44      0x315 build/cooja/mtype742.a(link-stats.o)
 .debug_abbrev  0x0000000000008f59      0x25c build/cooja/mtype742.a(mac-sequence.o)
 .debug_abbrev  0x00000000000091b5      0x1d6 build/cooja/mtype742.a(mac.o)
 .debug_abbrev  0x000000000000938b      0x262 build/cooja/mtype742.a(framer-802154.o)
 .debug_abbrev  0x00000000000095ed      0x310 build/cooja/mtype742.a(frame802154.o)
 .debug_abbrev  0x00000000000098fd      0x1fc build/cooja/mtype742.a(csma-security.o)
 .debug_abbrev  0x0000000000009af9      0x256 build/cooja/mtype742.a(uipbuf.o)
 .debug_abbrev  0x0000000000009d4f      0x309 build/cooja/mtype742.a(uip-icmp6.o)
 .debug_abbrev  0x000000000000a058      0x309 build/cooja/mtype742.a(uip-sr.o)
 .debug_abbrev  0x000000000000a361      0x28c build/cooja/mtype742.a(uip-packetqueue)
 .debug_abbrev  0x000000000000a5ed      0x1f9 build/cooja/mtype742.a(uip-udp-packet.)
 .debug_abbrev  0x000000000000a7e6      0x3af build/cooja/mtype742.a(rpl-icmp6.o)
 .debug_abbrev  0x000000000000ab95      0x3c7 build/cooja/mtype742.a(rpl-neighbor.o)
 .debug_abbrev  0x000000000000af5c      0x378 build/cooja/mtype742.a(rpl-timers.o)
 .debug_abbrev  0x000000000000b2d4      0x379 build/cooja/mtype742.a(rpl-ext-header.)
 .debug_abbrev  0x000000000000b64d      0x26f build/cooja/mtype742.a(rpl-nbr-policy.)
 .debug_abbrev  0x000000000000b8bc      0x2a9 build/cooja/mtype742.a(rpl-mrhof.o)

.debug_line     0x0000000000000000    0x159c5
 *(.debug_line .debug_line.* .debug_line_end)
 .debug_line    0x0000000000000000      0x3ff Client.o
 .debug_line    0x00000000000003ff      0x6ad build/cooja/mtype742.o
 .debug_line    0x0000000000000aac      0x48a build/cooja/obj/TransferUDP.o
 .debug_line    0x0000000000000f36      0x28a build/cooja/mtype742.a(simEnvChange.o)
 .debug_line    0x00000000000011c0      0x1c8 build/cooja/mtype742.a(cooja_mt.o)
 .debug_line    0x0000000000001388      0x2c7 build/cooja/mtype742.a(cooja_mtarch.o)
 .debug_line    0x000000000000164f      0x1c3 build/cooja/mtype742.a(rtimer-arch.o)
 .debug_line    0x0000000000001812      0x188 build/cooja/mtype742.a(beep.o)
 .debug_line    0x000000000000199a      0x1de build/cooja/mtype742.a(leds-arch.o)
 .debug_line    0x0000000000001b78      0x196 build/cooja/mtype742.a(moteid.o)
 .debug_line    0x0000000000001d0e      0x1fe build/cooja/mtype742.a(pir-sensor.o)
 .debug_line    0x0000000000001f0c      0x320 build/cooja/mtype742.a(rs232.o)
 .debug_line    0x000000000000222c      0x1fe build/cooja/mtype742.a(vib-sensor.o)
 .debug_line    0x000000000000242a      0x15e build/cooja/mtype742.a(clock.o)
 .debug_line    0x0000000000002588      0x2f1 build/cooja/mtype742.a(cooja-log.o)
 .debug_line    0x0000000000002879      0x3a8 build/cooja/mtype742.a(cfs-cooja.o)
 .debug_line    0x0000000000002c21      0x5d2 build/cooja/mtype742.a(cooja-radio.o)
 .debug_line    0x00000000000031f3      0x1d0 build/cooja/mtype742.a(eeprom.o)
 .debug_line    0x00000000000033c3       0x69 build/cooja/mtype742.a(random.o)
 .debug_line    0x000000000000342c      0x28f build/cooja/mtype742.a(sensors.o)
 .debug_line    0x00000000000036bb      0x2c5 build/cooja/mtype742.a(leds.o)
 .debug_line    0x0000000000003980      0x458 build/cooja/mtype742.a(gpio-hal-arch.o)
 .debug_line    0x0000000000003dd8      0x35a build/cooja/mtype742.a(buttons.o)
 .debug_line    0x0000000000004132      0x6d1 build/cooja/mtype742.a(contiki-main.o)
 .debug_line    0x0000000000004803      0x17a build/cooja/mtype742.a(autostart.o)
 .debug_line    0x000000000000497d      0x269 build/cooja/mtype742.a(ctimer.o)
 .debug_line    0x0000000000004be6      0x3bb build/cooja/mtype742.a(log.o)
 .debug_line    0x0000000000004fa1      0x167 build/cooja/mtype742.a(energest.o)
 .debug_line    0x0000000000005108      0x342 build/cooja/mtype742.a(etimer.o)
 .debug_line    0x000000000000544a      0x1db build/cooja/mtype742.a(node-id.o)
 .debug_line    0x0000000000005625      0x1bc build/cooja/mtype742.a(rtimer.o)
 .debug_line    0x00000000000057e1      0x443 build/cooja/mtype742.a(process.o)
 .debug_line    0x0000000000005c24      0x181 build/cooja/mtype742.a(timer.o)
 .debug_line    0x0000000000005da5      0x2e2 build/cooja/mtype742.a(list.o)
 .debug_line    0x0000000000006087      0x3b9 build/cooja/mtype742.a(button-hal.o)
 .debug_line    0x0000000000006440      0x273 build/cooja/mtype742.a(serial-line.o)
 .debug_line    0x00000000000066b3      0x324 build/cooja/mtype742.a(gpio-hal.o)
 .debug_line    0x00000000000069d7      0x4a4 build/cooja/mtype742.a(queuebuf.o)
 .debug_line    0x0000000000006e7b      0x529 build/cooja/mtype742.a(packetbuf.o)
 .debug_line    0x00000000000073a4      0x2e2 build/cooja/mtype742.a(netstack.o)
 .debug_line    0x0000000000007686      0x1a2 build/cooja/mtype742.a(linkaddr.o)
 .debug_line    0x0000000000007828      0x407 build/cooja/mtype742.a(csma.o)
 .debug_line    0x0000000000007c2f      0x6d7 build/cooja/mtype742.a(csma-output.o)
 .debug_line    0x0000000000008306      0x850 build/cooja/mtype742.a(uip-ds6.o)
 .debug_line    0x0000000000008b56      0x4b3 build/cooja/mtype742.a(uiplib.o)
 .debug_line    0x0000000000009009      0x6a3 build/cooja/mtype742.a(tcpip.o)
 .debug_line    0x00000000000096ac      0x551 build/cooja/mtype742.a(uip-ds6-route.o)
 .debug_line    0x0000000000009bfd      0x57a build/cooja/mtype742.a(uip-ds6-nbr.o)
 .debug_line    0x000000000000a177      0xc23 build/cooja/mtype742.a(uip6.o)
 .debug_line    0x000000000000ad9a      0x653 build/cooja/mtype742.a(uip-nd6.o)
 .debug_line    0x000000000000b3ed      0x4a6 build/cooja/mtype742.a(simple-udp.o)
 .debug_line    0x000000000000b893     0x1710 build/cooja/mtype742.a(sicslowpan.o)
 .debug_line    0x000000000000cfa3      0x689 build/cooja/mtype742.a(rpl.o)
 .debug_line    0x000000000000d62c      0xa38 build/cooja/mtype742.a(rpl-dag.o)
 .debug_line    0x000000000000e064      0x568 build/cooja/mtype742.a(rpl-dag-root.o)
 .debug_line    0x000000000000e5cc      0x15b build/cooja/mtype742.a(watchdog.o)
 .debug_line    0x000000000000e727      0x18f build/cooja/mtype742.a(int-master.o)
 .debug_line    0x000000000000e8b6      0x185 build/cooja/mtype742.a(stimer.o)
 .debug_line    0x000000000000ea3b      0x269 build/cooja/mtype742.a(memb.o)
 .debug_line    0x000000000000eca4      0x20e build/cooja/mtype742.a(assert.o)
 .debug_line    0x000000000000eeb2      0x227 build/cooja/mtype742.a(ringbuf.o)
 .debug_line    0x000000000000f0d9      0x794 build/cooja/mtype742.a(nbr-table.o)
 .debug_line    0x000000000000f86d      0x4fd build/cooja/mtype742.a(link-stats.o)
 .debug_line    0x000000000000fd6a      0x468 build/cooja/mtype742.a(mac-sequence.o)
 .debug_line    0x00000000000101d2      0x295 build/cooja/mtype742.a(mac.o)
 .debug_line    0x0000000000010467      0x46f build/cooja/mtype742.a(framer-802154.o)
 .debug_line    0x00000000000108d6      0x7f5 build/cooja/mtype742.a(frame802154.o)
 .debug_line    0x00000000000110cb      0x384 build/cooja/mtype742.a(csma-security.o)
 .debug_line    0x000000000001144f      0x3d3 build/cooja/mtype742.a(uipbuf.o)
 .debug_line    0x0000000000011822      0x69d build/cooja/mtype742.a(uip-icmp6.o)
 .debug_line    0x0000000000011ebf      0x64f build/cooja/mtype742.a(uip-sr.o)
 .debug_line    0x000000000001250e      0x362 build/cooja/mtype742.a(uip-packetqueue)
 .debug_line    0x0000000000012870      0x23d build/cooja/mtype742.a(uip-udp-packet.)
 .debug_line    0x0000000000012aad      0xbe4 build/cooja/mtype742.a(rpl-icmp6.o)
 .debug_line    0x0000000000013691      0x814 build/cooja/mtype742.a(rpl-neighbor.o)
 .debug_line    0x0000000000013ea5      0x7c4 build/cooja/mtype742.a(rpl-timers.o)
 .debug_line    0x0000000000014669      0x99b build/cooja/mtype742.a(rpl-ext-header.)
 .debug_line    0x0000000000015004      0x41a build/cooja/mtype742.a(rpl-nbr-policy.)
 .debug_line    0x000000000001541e      0x5a7 build/cooja/mtype742.a(rpl-mrhof.o)

.debug_frame
 *(.debug_frame)

.debug_str      0x0000000000000000     0x9019
 *(.debug_str)
 .debug_str     0x0000000000000000      0xa95 Client.o
                                        0xd25 (size before relaxing)
 .debug_str     0x0000000000000a95     0x1938 build/cooja/mtype742.o
                                       0x23a1 (size before relaxing)
 .debug_str     0x00000000000023cd      0x14c build/cooja/obj/TransferUDP.o
                                        0xe3e (size before relaxing)
 .debug_str     0x0000000000002519       0x3d build/cooja/mtype742.a(simEnvChange.o)
                                        0x46b (size before relaxing)
 .debug_str     0x0000000000002556       0x65 build/cooja/mtype742.a(cooja_mt.o)
                                        0x2dd (size before relaxing)
 .debug_str     0x00000000000025bb       0xa4 build/cooja/mtype742.a(cooja_mtarch.o)
                                        0x4de (size before relaxing)
 .debug_str     0x000000000000265f      0x111 build/cooja/mtype742.a(rtimer-arch.o)
                                        0x381 (size before relaxing)
 .debug_str     0x0000000000002770       0xd3 build/cooja/mtype742.a(beep.o)
                                        0x345 (size before relaxing)
 .debug_str     0x0000000000002843       0xab build/cooja/mtype742.a(leds-arch.o)
                                        0x369 (size before relaxing)
 .debug_str     0x00000000000028ee       0x56 build/cooja/mtype742.a(moteid.o)
                                        0x308 (size before relaxing)
 .debug_str     0x0000000000002944       0x64 build/cooja/mtype742.a(pir-sensor.o)
                                        0x35d (size before relaxing)
 .debug_str     0x00000000000029a8       0xd0 build/cooja/mtype742.a(rs232.o)
                                        0x5a1 (size before relaxing)
 .debug_str     0x0000000000002a78       0x64 build/cooja/mtype742.a(vib-sensor.o)
                                        0x35d (size before relaxing)
 .debug_str     0x0000000000002adc       0x71 build/cooja/mtype742.a(clock.o)
                                        0x318 (size before relaxing)
 .debug_str     0x0000000000002b4d      0x107 build/cooja/mtype742.a(cooja-log.o)
                                        0x5c3 (size before relaxing)
 .debug_str     0x0000000000002c54      0x219 build/cooja/mtype742.a(cfs-cooja.o)
                                        0x68a (size before relaxing)
 .debug_str     0x0000000000002e6d      0x683 build/cooja/mtype742.a(cooja-radio.o)
                                        0xfcc (size before relaxing)
 .debug_str     0x00000000000034f0       0xa8 build/cooja/mtype742.a(eeprom.o)
                                        0x355 (size before relaxing)
 .debug_str     0x0000000000003598       0x43 build/cooja/mtype742.a(random.o)
                                        0x197 (size before relaxing)
 .debug_str     0x00000000000035db       0x9b build/cooja/mtype742.a(sensors.o)
                                        0x350 (size before relaxing)
 .debug_str     0x0000000000003676       0x9a build/cooja/mtype742.a(leds.o)
                                        0x332 (size before relaxing)
 .debug_str     0x0000000000003710      0x2b5 build/cooja/mtype742.a(gpio-hal-arch.o)
                                        0xa37 (size before relaxing)
 .debug_str     0x00000000000039c5      0x104 build/cooja/mtype742.a(buttons.o)
                                        0xa10 (size before relaxing)
 .debug_str     0x0000000000003ac9      0xb18 build/cooja/mtype742.a(contiki-main.o)
                                       0x1b0d (size before relaxing)
 .debug_str     0x00000000000045e1       0x48 build/cooja/mtype742.a(autostart.o)
                                        0x27c (size before relaxing)
 .debug_str     0x0000000000004629       0xdf build/cooja/mtype742.a(ctimer.o)
                                        0x360 (size before relaxing)
 .debug_str     0x0000000000004708       0xc0 build/cooja/mtype742.a(log.o)
                                        0x859 (size before relaxing)
 .debug_str     0x00000000000047c8       0x5d build/cooja/mtype742.a(energest.o)
                                        0x29b (size before relaxing)
 .debug_str     0x0000000000004825      0x160 build/cooja/mtype742.a(etimer.o)
                                        0x3c4 (size before relaxing)
 .debug_str     0x0000000000004985       0x34 build/cooja/mtype742.a(node-id.o)
                                        0x4ac (size before relaxing)
 .debug_str     0x00000000000049b9       0xc0 build/cooja/mtype742.a(rtimer.o)
                                        0x31f (size before relaxing)
 .debug_str     0x0000000000004a79      0x157 build/cooja/mtype742.a(process.o)
                                        0x557 (size before relaxing)
 .debug_str     0x0000000000004bd0       0x25 build/cooja/mtype742.a(timer.o)
                                        0x2ab (size before relaxing)
 .debug_str     0x0000000000004bf5       0xc4 build/cooja/mtype742.a(list.o)
                                        0x30a (size before relaxing)
 .debug_str     0x0000000000004cb9      0x1a4 build/cooja/mtype742.a(button-hal.o)
                                        0x5b3 (size before relaxing)
 .debug_str     0x0000000000004e5d       0x90 build/cooja/mtype742.a(serial-line.o)
                                        0x335 (size before relaxing)
 .debug_str     0x0000000000004eed      0x10a build/cooja/mtype742.a(gpio-hal.o)
                                        0x8fc (size before relaxing)
 .debug_str     0x0000000000004ff7      0x1da build/cooja/mtype742.a(queuebuf.o)
                                        0xf10 (size before relaxing)
 .debug_str     0x00000000000051d1      0x1c4 build/cooja/mtype742.a(packetbuf.o)
                                        0xf45 (size before relaxing)
 .debug_str     0x0000000000005395      0x177 build/cooja/mtype742.a(netstack.o)
                                        0x5fa (size before relaxing)
 .debug_str     0x000000000000550c       0x5a build/cooja/mtype742.a(linkaddr.o)
                                        0x2d5 (size before relaxing)
 .debug_str     0x0000000000005566       0x92 build/cooja/mtype742.a(csma.o)
                                        0xdff (size before relaxing)
 .debug_str     0x00000000000055f8      0x2ae build/cooja/mtype742.a(csma-output.o)
                                        0xebc (size before relaxing)
 .debug_str     0x00000000000058a6      0x2f7 build/cooja/mtype742.a(uip-ds6.o)
                                        0xecf (size before relaxing)
 .debug_str     0x0000000000005b9d       0xa0 build/cooja/mtype742.a(uiplib.o)
                                        0x810 (size before relaxing)
 .debug_str     0x0000000000005c3d      0x28e build/cooja/mtype742.a(tcpip.o)
                                       0x11d8 (size before relaxing)
 .debug_str     0x0000000000005ecb      0x258 build/cooja/mtype742.a(uip-ds6-route.o)
                                        0xf68 (size before relaxing)
 .debug_str     0x0000000000006123      0x1d2 build/cooja/mtype742.a(uip-ds6-nbr.o)
                                       0x116f (size before relaxing)
 .debug_str     0x00000000000062f5      0x21c build/cooja/mtype742.a(uip6.o)
                                       0x112b (size before relaxing)
 .debug_str     0x0000000000006511      0x12d build/cooja/mtype742.a(uip-nd6.o)
                                        0xed6 (size before relaxing)
 .debug_str     0x000000000000663e       0xc1 build/cooja/mtype742.a(simple-udp.o)
                                        0xd55 (size before relaxing)
 .debug_str     0x00000000000066ff      0x5d8 build/cooja/mtype742.a(sicslowpan.o)
                                       0x17e9 (size before relaxing)
 .debug_str     0x0000000000006cd7      0x12f build/cooja/mtype742.a(rpl.o)
                                       0x13af (size before relaxing)
 .debug_str     0x0000000000006e06      0x371 build/cooja/mtype742.a(rpl-dag.o)
                                       0x1462 (size before relaxing)
 .debug_str     0x0000000000007177       0xb1 build/cooja/mtype742.a(rpl-dag-root.o)
                                       0x133f (size before relaxing)
 .debug_str     0x0000000000007228       0x86 build/cooja/mtype742.a(watchdog.o)
                                        0x2b0 (size before relaxing)
 .debug_str     0x00000000000072ae       0x98 build/cooja/mtype742.a(int-master.o)
                                        0x2f7 (size before relaxing)
 .debug_str     0x0000000000007346       0x7c build/cooja/mtype742.a(stimer.o)
                                        0x2bc (size before relaxing)
 .debug_str     0x00000000000073c2       0x6a build/cooja/mtype742.a(memb.o)
                                        0x2a9 (size before relaxing)
 .debug_str     0x000000000000742c       0x36 build/cooja/mtype742.a(assert.o)
                                        0x427 (size before relaxing)
 .debug_str     0x0000000000007462       0x6a build/cooja/mtype742.a(ringbuf.o)
                                        0x2d5 (size before relaxing)
 .debug_str     0x00000000000074cc      0x383 build/cooja/mtype742.a(nbr-table.o)
                                        0xd7e (size before relaxing)
 .debug_str     0x000000000000784f      0x139 build/cooja/mtype742.a(link-stats.o)
                                        0xe7b (size before relaxing)
 .debug_str     0x0000000000007988       0x80 build/cooja/mtype742.a(mac-sequence.o)
                                        0xd9f (size before relaxing)
 .debug_str     0x0000000000007a08       0x45 build/cooja/mtype742.a(mac.o)
                                        0x7d8 (size before relaxing)
 .debug_str     0x0000000000007a4d      0x23d build/cooja/mtype742.a(framer-802154.o)
                                        0xbcc (size before relaxing)
 .debug_str     0x0000000000007c8a      0x202 build/cooja/mtype742.a(frame802154.o)
                                        0x890 (size before relaxing)
 .debug_str     0x0000000000007e8c       0x9f build/cooja/mtype742.a(csma-security.o)
                                        0xb83 (size before relaxing)
 .debug_str     0x0000000000007f2b      0x1bf build/cooja/mtype742.a(uipbuf.o)
                                        0x794 (size before relaxing)
 .debug_str     0x00000000000080ea      0x1fd build/cooja/mtype742.a(uip-icmp6.o)
                                       0x110a (size before relaxing)
 .debug_str     0x00000000000082e7      0x199 build/cooja/mtype742.a(uip-sr.o)
                                        0xebb (size before relaxing)
 .debug_str     0x0000000000008480      0x103 build/cooja/mtype742.a(uip-packetqueue)
                                        0x7e4 (size before relaxing)
 .debug_str     0x0000000000008583       0x7b build/cooja/mtype742.a(uip-udp-packet.)
                                        0x51b (size before relaxing)
 .debug_str     0x00000000000085fe      0x156 build/cooja/mtype742.a(rpl-icmp6.o)
                                       0x158b (size before relaxing)
 .debug_str     0x0000000000008754      0x276 build/cooja/mtype742.a(rpl-neighbor.o)
                                       0x1318 (size before relaxing)
 .debug_str     0x00000000000089ca      0x334 build/cooja/mtype742.a(rpl-timers.o)
                                       0x135e (size before relaxing)
 .debug_str     0x0000000000008cfe      0x1eb build/cooja/mtype742.a(rpl-ext-header.)
                                       0x1739 (size before relaxing)
 .debug_str     0x0000000000008ee9       0x61 build/cooja/mtype742.a(rpl-nbr-policy.)
                                       0x100f (size before relaxing)
 .debug_str     0x0000000000008f4a       0xcf build/cooja/mtype742.a(rpl-mrhof.o)
                                       0x10c1 (size before relaxing)

.debug_loc
 *(.debug_loc)

.debug_macinfo
 *(.debug_macinfo)

.debug_weaknames
 *(.debug_weaknames)

.debug_funcnames
 *(.debug_funcnames)

.debug_typenames
 *(.debug_typenames)

.debug_varnames
 *(.debug_varnames)

.debug_pubtypes
 *(.debug_pubtypes)

.debug_ranges   0x0000000000000000      0x110
 *(.debug_ranges)
 .debug_ranges  0x0000000000000000       0x30 build/cooja/mtype742.a(etimer.o)
 .debug_ranges  0x0000000000000030       0x60 build/cooja/mtype742.a(csma-output.o)
 .debug_ranges  0x0000000000000090       0x30 build/cooja/mtype742.a(tcpip.o)
 .debug_ranges  0x00000000000000c0       0x50 build/cooja/mtype742.a(uip-nd6.o)

.debug_macro
 *(.debug_macro)

.debug_addr
 *(.debug_addr)

.gnu.attributes
 *(.gnu.attributes)

/DISCARD/
 *(.note.GNU-stack)
 *(.gnu_debuglink)
 *(.gnu.lto_*)
OUTPUT(build/cooja/mtype742.cooja elf64-x86-64)
