Archive member included to satisfy reference by file (symbol)

build/cooja/mtype468.a(simEnvChange.o)
                              build/cooja/mtype468.o (simDontFallAsleep)
build/cooja/mtype468.a(cooja_mt.o)
                              build/cooja/mtype468.o (cooja_mt_start)
build/cooja/mtype468.a(cooja_mtarch.o)
                              build/cooja/mtype468.a(cooja_mt.o) (cooja_mtarch_start)
build/cooja/mtype468.a(rtimer-arch.o)
                              build/cooja/mtype468.o (rtimer_arch_check)
build/cooja/mtype468.a(beep.o)
                              build/cooja/mtype468.o (beep_interface)
build/cooja/mtype468.a(leds-arch.o)
                              build/cooja/mtype468.o (leds_interface)
build/cooja/mtype468.a(moteid.o)
                              build/cooja/mtype468.o (moteid_interface)
build/cooja/mtype468.a(pir-sensor.o)
                              build/cooja/mtype468.o (pir_interface)
build/cooja/mtype468.a(rs232.o)
                              build/cooja/mtype468.o (rs232_interface)
build/cooja/mtype468.a(vib-sensor.o)
                              build/cooja/mtype468.o (vib_interface)
build/cooja/mtype468.a(clock.o)
                              build/cooja/mtype468.o (clock_interface)
build/cooja/mtype468.a(cooja-log.o)
                              build/cooja/mtype468.o (simlog_interface)
build/cooja/mtype468.a(cfs-cooja.o)
                              build/cooja/mtype468.o (cfs_interface)
build/cooja/mtype468.a(cooja-radio.o)
                              build/cooja/mtype468.o (radio_interface)
build/cooja/mtype468.a(eeprom.o)
                              build/cooja/mtype468.o (eeprom_interface)
build/cooja/mtype468.a(random.o)
                              build/cooja/mtype468.a(moteid.o) (random_init)
build/cooja/mtype468.a(sensors.o)
                              build/cooja/mtype468.a(pir-sensor.o) (sensors_changed)
build/cooja/mtype468.a(leds.o)
                              build/cooja/mtype468.a(leds-arch.o) (leds_get)
build/cooja/mtype468.a(gpio-hal-arch.o)
                              build/cooja/mtype468.a(leds-arch.o) (gpio_hal_arch_register_pin_callback)
build/cooja/mtype468.a(buttons.o)
                              build/cooja/mtype468.o (button_interface)
build/cooja/mtype468.a(contiki-main.o)
                              build/cooja/mtype468.o (main)
build/cooja/mtype468.a(autostart.o)
                              build/cooja/mtype468.a(contiki-main.o) (autostart_start)
build/cooja/mtype468.a(ctimer.o)
                              build/cooja/mtype468.a(contiki-main.o) (ctimer_init)
build/cooja/mtype468.a(log.o)
                              build/cooja/mtype468.a(contiki-main.o) (curr_log_level_main)
build/cooja/mtype468.a(energest.o)
                              build/cooja/mtype468.a(contiki-main.o) (energest_init)
build/cooja/mtype468.a(etimer.o)
                              build/cooja/mtype468.a(contiki-main.o) (etimer_process)
build/cooja/mtype468.a(node-id.o)
                              build/cooja/mtype468.a(contiki-main.o) (node_id)
build/cooja/mtype468.a(rtimer.o)
                              build/cooja/mtype468.a(contiki-main.o) (rtimer_init)
build/cooja/mtype468.a(process.o)
                              build/cooja/mtype468.a(ctimer.o) (process_current)
build/cooja/mtype468.a(timer.o)
                              build/cooja/mtype468.a(etimer.o) (timer_set)
build/cooja/mtype468.a(list.o)
                              build/cooja/mtype468.a(ctimer.o) (list_init)
build/cooja/mtype468.a(button-hal.o)
                              build/cooja/mtype468.o (button_hal_init)
build/cooja/mtype468.a(serial-line.o)
                              build/cooja/mtype468.a(rs232.o) (serial_line_input_byte)
build/cooja/mtype468.a(gpio-hal.o)
                              build/cooja/mtype468.a(button-hal.o) (gpio_hal_register_handler)
build/cooja/mtype468.a(queuebuf.o)
                              build/cooja/mtype468.a(contiki-main.o) (queuebuf_init)
build/cooja/mtype468.a(packetbuf.o)
                              build/cooja/mtype468.a(cooja-radio.o) (packetbuf_clear)
build/cooja/mtype468.a(netstack.o)
                              build/cooja/mtype468.a(contiki-main.o) (netstack_init)
build/cooja/mtype468.a(linkaddr.o)
                              build/cooja/mtype468.a(contiki-main.o) (linkaddr_node_addr)
build/cooja/mtype468.a(csma.o)
                              build/cooja/mtype468.a(cooja-radio.o) (csma_driver)
build/cooja/mtype468.a(csma-output.o)
                              build/cooja/mtype468.a(csma.o) (csma_output_packet)
build/cooja/mtype468.a(uip-ds6.o)
                              build/cooja/mtype468.a(contiki-main.o) (uip_ds6_get_link_local)
build/cooja/mtype468.a(uiplib.o)
                              build/cooja/mtype468.a(log.o) (uiplib_ipaddr_snprint)
build/cooja/mtype468.a(tcpip.o)
                              build/cooja/mtype468.a(contiki-main.o) (tcpip_process)
build/cooja/mtype468.a(uip-ds6-route.o)
                              build/cooja/mtype468.a(uip-ds6.o) (uip_ds6_route_init)
build/cooja/mtype468.a(uip-ds6-nbr.o)
                              build/cooja/mtype468.a(uip-ds6.o) (uip_ds6_neighbors_init)
build/cooja/mtype468.a(uip6.o)
                              build/cooja/mtype468.a(contiki-main.o) (uip_lladdr)
build/cooja/mtype468.a(uip-nd6.o)
                              build/cooja/mtype468.a(uip6.o) (uip_nd6_init)
build/cooja/mtype468.a(simple-udp.o)
                              build/cooja/obj/TransferUDP.o (simple_udp_sendto)
build/cooja/mtype468.a(sicslowpan.o)
                              build/cooja/mtype468.a(contiki-main.o) (sicslowpan_driver)
build/cooja/mtype468.a(rpl.o)
                              build/cooja/obj/TransferUDP.o (rpl_lite_driver)
build/cooja/mtype468.a(rpl-dag.o)
                              build/cooja/mtype468.a(rpl.o) (curr_instance)
build/cooja/mtype468.a(rpl-dag-root.o)
                              build/cooja/mtype468.a(rpl.o) (rpl_dag_root_is_root)
build/cooja/mtype468.a(watchdog.o)
                              build/cooja/mtype468.a(contiki-main.o) (watchdog_init)
build/cooja/mtype468.a(int-master.o)
                              build/cooja/mtype468.a(button-hal.o) (int_master_read_and_disable)
build/cooja/mtype468.a(stimer.o)
                              build/cooja/mtype468.a(uip-ds6.o) (stimer_set)
build/cooja/mtype468.a(memb.o)
                              build/cooja/mtype468.a(queuebuf.o) (memb_init)
build/cooja/mtype468.a(assert.o)
                              build/cooja/mtype468.a(csma-output.o) (_xassert)
build/cooja/mtype468.a(ringbuf.o)
                              build/cooja/mtype468.a(serial-line.o) (ringbuf_init)
build/cooja/mtype468.a(nbr-table.o)
                              build/cooja/mtype468.a(uip-ds6-nbr.o) (nbr_table_get_from_lladdr)
build/cooja/mtype468.a(link-stats.o)
                              build/cooja/mtype468.a(sicslowpan.o) (link_stats_packet_sent)
build/cooja/mtype468.a(mac-sequence.o)
                              build/cooja/mtype468.a(csma.o) (mac_sequence_is_duplicate)
build/cooja/mtype468.a(mac.o)
                              build/cooja/mtype468.a(csma-output.o) (mac_call_sent_callback)
build/cooja/mtype468.a(framer-802154.o)
                              build/cooja/mtype468.a(csma.o) (framer_802154)
build/cooja/mtype468.a(frame802154.o)
                              build/cooja/mtype468.a(framer-802154.o) (frame802154_get_pan_id)
build/cooja/mtype468.a(csma-security.o)
                              build/cooja/mtype468.a(csma-output.o) (csma_security_create_frame)
build/cooja/mtype468.a(uipbuf.o)
                              build/cooja/mtype468.a(tcpip.o) (uipbuf_clear)
build/cooja/mtype468.a(uip-icmp6.o)
                              build/cooja/mtype468.a(uip6.o) (uip_icmp6_input)
build/cooja/mtype468.a(uip-sr.o)
                              build/cooja/mtype468.a(rpl-dag-root.o) (uip_sr_num_nodes)
build/cooja/mtype468.a(uip-packetqueue)
                              build/cooja/mtype468.a(uip-ds6-nbr.o) (uip_packetqueue_new)
build/cooja/mtype468.a(uip-udp-packet.)
                              build/cooja/mtype468.a(simple-udp.o) (uip_udp_packet_sendto)
build/cooja/mtype468.a(rpl-icmp6.o)
                              build/cooja/mtype468.a(rpl-dag.o) (rpl_icmp6_update_nbr_table)
build/cooja/mtype468.a(rpl-neighbor.o)
                              build/cooja/mtype468.a(rpl-dag.o) (rpl_neighbors)
build/cooja/mtype468.a(rpl-timers.o)
                              build/cooja/mtype468.a(rpl-dag.o) (rpl_timers_schedule_periodic_dis)
build/cooja/mtype468.a(rpl-ext-header.)
                              build/cooja/mtype468.a(rpl.o) (rpl_ext_header_srh_get_next_hop)
build/cooja/mtype468.a(rpl-nbr-policy.)
                              build/cooja/mtype468.a(nbr-table.o) (rpl_nbr_gc_get_worst)
build/cooja/mtype468.a(rpl-mrhof.o)
                              build/cooja/mtype468.a(rpl-dag.o) (rpl_mrhof)

Merging program properties


As-needed library included to satisfy reference by file (symbol)

libc.so.6                     build/cooja/obj/Image.o (getc@@GLIBC_2.2.5)

Allocating common symbols
Common symbol       size              file

simButtonIsDown     0x1               build/cooja/mtype468.a(buttons.o)
simOutDataBuffer    0x7d              build/cooja/mtype468.a(cooja-radio.o)
uip_ds6_prefix_list
                    0x60              build/cooja/mtype468.a(uip-ds6.o)
linkaddr_node_addr  0x8               build/cooja/mtype468.a(linkaddr.o)
simSerialReceivingFlag
                    0x1               build/cooja/mtype468.a(rs232.o)
simEEPROMData       0x400             build/cooja/mtype468.a(eeprom.o)
periodic_timer      0x40              build/cooja/mtype468.a(link-stats.o)
simLoggedLength     0x4               build/cooja/mtype468.a(cooja-log.o)
simSerialReceivingLength
                    0x4               build/cooja/mtype468.a(rs232.o)
simEtimerPending    0x4               build/cooja/mtype468.a(simEnvChange.o)
uip_slen            0x2               build/cooja/mtype468.a(uip6.o)
uip_ds6_timer_periodic
                    0x20              build/cooja/mtype468.a(uip-ds6.o)
simVibChanged       0x1               build/cooja/mtype468.a(vib-sensor.o)
simRtimerPending    0x4               build/cooja/mtype468.a(rtimer-arch.o)
button_hal_periodic_event
                    0x1               build/cooja/mtype468.a(button-hal.o)
uip_ds6_netif_addr_list_offset
                    0x1               build/cooja/mtype468.a(uip-ds6.o)
uip_lladdr          0x8               build/cooja/mtype468.a(uip6.o)
button_hal_press_event
                    0x1               build/cooja/mtype468.a(button-hal.o)
simProcessRunValue  0x4               build/cooja/mtype468.a(simEnvChange.o)
file_img_6          0x7a120           build/cooja/mtype468.a(cfs-cooja.o)
file_img_2          0x7a120           build/cooja/mtype468.a(cfs-cooja.o)
file_img_4          0x7a120           build/cooja/mtype468.a(cfs-cooja.o)
file_img_8          0x7a120           build/cooja/mtype468.a(cfs-cooja.o)
serial_line_event_message
                    0x1               build/cooja/mtype468.a(serial-line.o)
uip_appdata         0x8               build/cooja/mtype468.a(uip6.o)
referenceVar        0x8               build/cooja/mtype468.o
simCurrentTime      0x8               build/cooja/mtype468.a(clock.o)
simVibIsActive      0x1               build/cooja/mtype468.a(vib-sensor.o)
uip_ds6_if          0x138             build/cooja/mtype468.a(uip-ds6.o)
uip_flags           0x1               build/cooja/mtype468.a(uip6.o)
uip_ds6_timer_ra    0x10              build/cooja/mtype468.a(uip-ds6.o)
file_img_0          0x7a120           build/cooja/mtype468.a(cfs-cooja.o)
simSerialReceivingData
                    0x800             build/cooja/mtype468.a(rs232.o)
simLoggedFlag       0x1               build/cooja/mtype468.a(cooja-log.o)
packetbuf_attrs     0x1a              build/cooja/mtype468.a(packetbuf.o)
uip_ds6_addr_size   0x1               build/cooja/mtype468.a(uip-ds6.o)
uip_aligned_buf     0x500             build/cooja/mtype468.a(uip6.o)
simRtimerCurrentTicks
                    0x8               build/cooja/mtype468.a(rtimer-arch.o)
simRandomSeed       0x4               build/cooja/mtype468.a(moteid.o)
rpl_multicast_addr  0x10              build/cooja/mtype468.a(rpl.o)
simLoggedData       0x2000            build/cooja/mtype468.a(cooja-log.o)
simEtimerNextExpirationTime
                    0x8               build/cooja/mtype468.a(simEnvChange.o)
uip_len             0x2               build/cooja/mtype468.a(uip6.o)
simButtonChanged    0x1               build/cooja/mtype468.a(buttons.o)
simRtimerNextExpirationTime
                    0x8               build/cooja/mtype468.a(rtimer-arch.o)
simPirIsActive      0x1               build/cooja/mtype468.a(pir-sensor.o)
simInDataBuffer     0x7d              build/cooja/mtype468.a(cooja-radio.o)
simPirChanged       0x1               build/cooja/mtype468.a(pir-sensor.o)
simBeeped           0x1               build/cooja/mtype468.a(beep.o)
tcpip_event         0x1               build/cooja/mtype468.a(tcpip.o)
uip_sappdata        0x8               build/cooja/mtype468.a(uip6.o)
sensors_event       0x1               build/cooja/mtype468.a(sensors.o)
file_img_3          0x7a120           build/cooja/mtype468.a(cfs-cooja.o)
file_img_7          0x7a120           build/cooja/mtype468.a(cfs-cooja.o)
file_img_5          0x7a120           build/cooja/mtype468.a(cfs-cooja.o)
file_img_9          0x7a120           build/cooja/mtype468.a(cfs-cooja.o)
uip_udp_conns       0x140             build/cooja/mtype468.a(uip6.o)
button_hal_release_event
                    0x1               build/cooja/mtype468.a(button-hal.o)
packetbuf_addrs     0x10              build/cooja/mtype468.a(packetbuf.o)
uip_udp_conn        0x8               build/cooja/mtype468.a(uip6.o)
simMoteIDChanged    0x1               build/cooja/mtype468.a(moteid.o)
sensors_flags       0x4               build/cooja/mtype468.o
file_img_1          0x7a120           build/cooja/mtype468.a(cfs-cooja.o)
curr_instance       0x260             build/cooja/mtype468.a(rpl-dag.o)
simMoteID           0x4               build/cooja/mtype468.a(moteid.o)
uip_conn            0x8               build/cooja/mtype468.a(uip6.o)

Discarded input sections

 .note.GNU-stack
                0x0000000000000000        0x0 /usr/lib/gcc/x86_64-linux-gnu/9/../../../x86_64-linux-gnu/crti.o
 .note.GNU-stack
                0x0000000000000000        0x0 /usr/lib/gcc/x86_64-linux-gnu/9/crtbeginS.o
 .note.gnu.property
                0x0000000000000000       0x20 /usr/lib/gcc/x86_64-linux-gnu/9/crtbeginS.o
 .note.GNU-stack
                0x0000000000000000        0x0 Client.o
 .note.gnu.property
                0x0000000000000000       0x20 Client.o
 .note.GNU-stack
                0x0000000000000000        0x0 build/cooja/mtype468.o
 .note.gnu.property
                0x0000000000000000       0x20 build/cooja/mtype468.o
 .note.GNU-stack
                0x0000000000000000        0x0 build/cooja/obj/Image.o
 .note.gnu.property
                0x0000000000000000       0x20 build/cooja/obj/Image.o
 .note.GNU-stack
                0x0000000000000000        0x0 build/cooja/obj/ImageDB.o
 .note.gnu.property
                0x0000000000000000       0x20 build/cooja/obj/ImageDB.o
 .note.GNU-stack
                0x0000000000000000        0x0 build/cooja/obj/TransferUDP.o
 .note.gnu.property
                0x0000000000000000       0x20 build/cooja/obj/TransferUDP.o
 .note.GNU-stack
                0x0000000000000000        0x0 build/cooja/mtype468.a(simEnvChange.o)
 .note.gnu.property
                0x0000000000000000       0x20 build/cooja/mtype468.a(simEnvChange.o)
 .note.GNU-stack
                0x0000000000000000        0x0 build/cooja/mtype468.a(cooja_mt.o)
 .note.gnu.property
                0x0000000000000000       0x20 build/cooja/mtype468.a(cooja_mt.o)
 .note.GNU-stack
                0x0000000000000000        0x0 build/cooja/mtype468.a(cooja_mtarch.o)
 .note.gnu.property
                0x0000000000000000       0x20 build/cooja/mtype468.a(cooja_mtarch.o)
 .note.GNU-stack
                0x0000000000000000        0x0 build/cooja/mtype468.a(rtimer-arch.o)
 .note.gnu.property
                0x0000000000000000       0x20 build/cooja/mtype468.a(rtimer-arch.o)
 .note.GNU-stack
                0x0000000000000000        0x0 build/cooja/mtype468.a(beep.o)
 .note.gnu.property
                0x0000000000000000       0x20 build/cooja/mtype468.a(beep.o)
 .note.GNU-stack
                0x0000000000000000        0x0 build/cooja/mtype468.a(leds-arch.o)
 .note.gnu.property
                0x0000000000000000       0x20 build/cooja/mtype468.a(leds-arch.o)
 .note.GNU-stack
                0x0000000000000000        0x0 build/cooja/mtype468.a(moteid.o)
 .note.gnu.property
                0x0000000000000000       0x20 build/cooja/mtype468.a(moteid.o)
 .note.GNU-stack
                0x0000000000000000        0x0 build/cooja/mtype468.a(pir-sensor.o)
 .note.gnu.property
                0x0000000000000000       0x20 build/cooja/mtype468.a(pir-sensor.o)
 .note.GNU-stack
                0x0000000000000000        0x0 build/cooja/mtype468.a(rs232.o)
 .note.gnu.property
                0x0000000000000000       0x20 build/cooja/mtype468.a(rs232.o)
 .note.GNU-stack
                0x0000000000000000        0x0 build/cooja/mtype468.a(vib-sensor.o)
 .note.gnu.property
                0x0000000000000000       0x20 build/cooja/mtype468.a(vib-sensor.o)
 .note.GNU-stack
                0x0000000000000000        0x0 build/cooja/mtype468.a(clock.o)
 .note.gnu.property
                0x0000000000000000       0x20 build/cooja/mtype468.a(clock.o)
 .note.GNU-stack
                0x0000000000000000        0x0 build/cooja/mtype468.a(cooja-log.o)
 .note.gnu.property
                0x0000000000000000       0x20 build/cooja/mtype468.a(cooja-log.o)
 .note.GNU-stack
                0x0000000000000000        0x0 build/cooja/mtype468.a(cfs-cooja.o)
 .note.gnu.property
                0x0000000000000000       0x20 build/cooja/mtype468.a(cfs-cooja.o)
 .note.GNU-stack
                0x0000000000000000        0x0 build/cooja/mtype468.a(cooja-radio.o)
 .note.gnu.property
                0x0000000000000000       0x20 build/cooja/mtype468.a(cooja-radio.o)
 .note.GNU-stack
                0x0000000000000000        0x0 build/cooja/mtype468.a(eeprom.o)
 .note.gnu.property
                0x0000000000000000       0x20 build/cooja/mtype468.a(eeprom.o)
 .note.GNU-stack
                0x0000000000000000        0x0 build/cooja/mtype468.a(random.o)
 .note.gnu.property
                0x0000000000000000       0x20 build/cooja/mtype468.a(random.o)
 .note.GNU-stack
                0x0000000000000000        0x0 build/cooja/mtype468.a(sensors.o)
 .note.gnu.property
                0x0000000000000000       0x20 build/cooja/mtype468.a(sensors.o)
 .note.GNU-stack
                0x0000000000000000        0x0 build/cooja/mtype468.a(leds.o)
 .note.gnu.property
                0x0000000000000000       0x20 build/cooja/mtype468.a(leds.o)
 .note.GNU-stack
                0x0000000000000000        0x0 build/cooja/mtype468.a(gpio-hal-arch.o)
 .note.gnu.property
                0x0000000000000000       0x20 build/cooja/mtype468.a(gpio-hal-arch.o)
 .note.GNU-stack
                0x0000000000000000        0x0 build/cooja/mtype468.a(buttons.o)
 .note.gnu.property
                0x0000000000000000       0x20 build/cooja/mtype468.a(buttons.o)
 .note.GNU-stack
                0x0000000000000000        0x0 build/cooja/mtype468.a(contiki-main.o)
 .note.gnu.property
                0x0000000000000000       0x20 build/cooja/mtype468.a(contiki-main.o)
 .note.GNU-stack
                0x0000000000000000        0x0 build/cooja/mtype468.a(autostart.o)
 .note.gnu.property
                0x0000000000000000       0x20 build/cooja/mtype468.a(autostart.o)
 .note.GNU-stack
                0x0000000000000000        0x0 build/cooja/mtype468.a(ctimer.o)
 .note.gnu.property
                0x0000000000000000       0x20 build/cooja/mtype468.a(ctimer.o)
 .note.GNU-stack
                0x0000000000000000        0x0 build/cooja/mtype468.a(log.o)
 .note.gnu.property
                0x0000000000000000       0x20 build/cooja/mtype468.a(log.o)
 .note.GNU-stack
                0x0000000000000000        0x0 build/cooja/mtype468.a(energest.o)
 .note.gnu.property
                0x0000000000000000       0x20 build/cooja/mtype468.a(energest.o)
 .note.GNU-stack
                0x0000000000000000        0x0 build/cooja/mtype468.a(etimer.o)
 .note.gnu.property
                0x0000000000000000       0x20 build/cooja/mtype468.a(etimer.o)
 .note.GNU-stack
                0x0000000000000000        0x0 build/cooja/mtype468.a(node-id.o)
 .note.gnu.property
                0x0000000000000000       0x20 build/cooja/mtype468.a(node-id.o)
 .note.GNU-stack
                0x0000000000000000        0x0 build/cooja/mtype468.a(rtimer.o)
 .note.gnu.property
                0x0000000000000000       0x20 build/cooja/mtype468.a(rtimer.o)
 .note.GNU-stack
                0x0000000000000000        0x0 build/cooja/mtype468.a(process.o)
 .note.gnu.property
                0x0000000000000000       0x20 build/cooja/mtype468.a(process.o)
 .note.GNU-stack
                0x0000000000000000        0x0 build/cooja/mtype468.a(timer.o)
 .note.gnu.property
                0x0000000000000000       0x20 build/cooja/mtype468.a(timer.o)
 .note.GNU-stack
                0x0000000000000000        0x0 build/cooja/mtype468.a(list.o)
 .note.gnu.property
                0x0000000000000000       0x20 build/cooja/mtype468.a(list.o)
 .note.GNU-stack
                0x0000000000000000        0x0 build/cooja/mtype468.a(button-hal.o)
 .note.gnu.property
                0x0000000000000000       0x20 build/cooja/mtype468.a(button-hal.o)
 .note.GNU-stack
                0x0000000000000000        0x0 build/cooja/mtype468.a(serial-line.o)
 .note.gnu.property
                0x0000000000000000       0x20 build/cooja/mtype468.a(serial-line.o)
 .note.GNU-stack
                0x0000000000000000        0x0 build/cooja/mtype468.a(gpio-hal.o)
 .note.gnu.property
                0x0000000000000000       0x20 build/cooja/mtype468.a(gpio-hal.o)
 .note.GNU-stack
                0x0000000000000000        0x0 build/cooja/mtype468.a(queuebuf.o)
 .note.gnu.property
                0x0000000000000000       0x20 build/cooja/mtype468.a(queuebuf.o)
 .note.GNU-stack
                0x0000000000000000        0x0 build/cooja/mtype468.a(packetbuf.o)
 .note.gnu.property
                0x0000000000000000       0x20 build/cooja/mtype468.a(packetbuf.o)
 .note.GNU-stack
                0x0000000000000000        0x0 build/cooja/mtype468.a(netstack.o)
 .note.gnu.property
                0x0000000000000000       0x20 build/cooja/mtype468.a(netstack.o)
 .note.GNU-stack
                0x0000000000000000        0x0 build/cooja/mtype468.a(linkaddr.o)
 .note.gnu.property
                0x0000000000000000       0x20 build/cooja/mtype468.a(linkaddr.o)
 .note.GNU-stack
                0x0000000000000000        0x0 build/cooja/mtype468.a(csma.o)
 .note.gnu.property
                0x0000000000000000       0x20 build/cooja/mtype468.a(csma.o)
 .note.GNU-stack
                0x0000000000000000        0x0 build/cooja/mtype468.a(csma-output.o)
 .note.gnu.property
                0x0000000000000000       0x20 build/cooja/mtype468.a(csma-output.o)
 .note.GNU-stack
                0x0000000000000000        0x0 build/cooja/mtype468.a(uip-ds6.o)
 .note.gnu.property
                0x0000000000000000       0x20 build/cooja/mtype468.a(uip-ds6.o)
 .note.GNU-stack
                0x0000000000000000        0x0 build/cooja/mtype468.a(uiplib.o)
 .note.gnu.property
                0x0000000000000000       0x20 build/cooja/mtype468.a(uiplib.o)
 .note.GNU-stack
                0x0000000000000000        0x0 build/cooja/mtype468.a(tcpip.o)
 .note.gnu.property
                0x0000000000000000       0x20 build/cooja/mtype468.a(tcpip.o)
 .note.GNU-stack
                0x0000000000000000        0x0 build/cooja/mtype468.a(uip-ds6-route.o)
 .note.gnu.property
                0x0000000000000000       0x20 build/cooja/mtype468.a(uip-ds6-route.o)
 .note.GNU-stack
                0x0000000000000000        0x0 build/cooja/mtype468.a(uip-ds6-nbr.o)
 .note.gnu.property
                0x0000000000000000       0x20 build/cooja/mtype468.a(uip-ds6-nbr.o)
 .note.GNU-stack
                0x0000000000000000        0x0 build/cooja/mtype468.a(uip6.o)
 .note.gnu.property
                0x0000000000000000       0x20 build/cooja/mtype468.a(uip6.o)
 .note.GNU-stack
                0x0000000000000000        0x0 build/cooja/mtype468.a(uip-nd6.o)
 .note.gnu.property
                0x0000000000000000       0x20 build/cooja/mtype468.a(uip-nd6.o)
 .note.GNU-stack
                0x0000000000000000        0x0 build/cooja/mtype468.a(simple-udp.o)
 .note.gnu.property
                0x0000000000000000       0x20 build/cooja/mtype468.a(simple-udp.o)
 .note.GNU-stack
                0x0000000000000000        0x0 build/cooja/mtype468.a(sicslowpan.o)
 .note.gnu.property
                0x0000000000000000       0x20 build/cooja/mtype468.a(sicslowpan.o)
 .note.GNU-stack
                0x0000000000000000        0x0 build/cooja/mtype468.a(rpl.o)
 .note.gnu.property
                0x0000000000000000       0x20 build/cooja/mtype468.a(rpl.o)
 .note.GNU-stack
                0x0000000000000000        0x0 build/cooja/mtype468.a(rpl-dag.o)
 .note.gnu.property
                0x0000000000000000       0x20 build/cooja/mtype468.a(rpl-dag.o)
 .note.GNU-stack
                0x0000000000000000        0x0 build/cooja/mtype468.a(rpl-dag-root.o)
 .note.gnu.property
                0x0000000000000000       0x20 build/cooja/mtype468.a(rpl-dag-root.o)
 .note.GNU-stack
                0x0000000000000000        0x0 build/cooja/mtype468.a(watchdog.o)
 .note.gnu.property
                0x0000000000000000       0x20 build/cooja/mtype468.a(watchdog.o)
 .note.GNU-stack
                0x0000000000000000        0x0 build/cooja/mtype468.a(int-master.o)
 .note.gnu.property
                0x0000000000000000       0x20 build/cooja/mtype468.a(int-master.o)
 .note.GNU-stack
                0x0000000000000000        0x0 build/cooja/mtype468.a(stimer.o)
 .note.gnu.property
                0x0000000000000000       0x20 build/cooja/mtype468.a(stimer.o)
 .note.GNU-stack
                0x0000000000000000        0x0 build/cooja/mtype468.a(memb.o)
 .note.gnu.property
                0x0000000000000000       0x20 build/cooja/mtype468.a(memb.o)
 .note.GNU-stack
                0x0000000000000000        0x0 build/cooja/mtype468.a(assert.o)
 .note.gnu.property
                0x0000000000000000       0x20 build/cooja/mtype468.a(assert.o)
 .note.GNU-stack
                0x0000000000000000        0x0 build/cooja/mtype468.a(ringbuf.o)
 .note.gnu.property
                0x0000000000000000       0x20 build/cooja/mtype468.a(ringbuf.o)
 .note.GNU-stack
                0x0000000000000000        0x0 build/cooja/mtype468.a(nbr-table.o)
 .note.gnu.property
                0x0000000000000000       0x20 build/cooja/mtype468.a(nbr-table.o)
 .note.GNU-stack
                0x0000000000000000        0x0 build/cooja/mtype468.a(link-stats.o)
 .note.gnu.property
                0x0000000000000000       0x20 build/cooja/mtype468.a(link-stats.o)
 .note.GNU-stack
                0x0000000000000000        0x0 build/cooja/mtype468.a(mac-sequence.o)
 .note.gnu.property
                0x0000000000000000       0x20 build/cooja/mtype468.a(mac-sequence.o)
 .note.GNU-stack
                0x0000000000000000        0x0 build/cooja/mtype468.a(mac.o)
 .note.gnu.property
                0x0000000000000000       0x20 build/cooja/mtype468.a(mac.o)
 .note.GNU-stack
                0x0000000000000000        0x0 build/cooja/mtype468.a(framer-802154.o)
 .note.gnu.property
                0x0000000000000000       0x20 build/cooja/mtype468.a(framer-802154.o)
 .note.GNU-stack
                0x0000000000000000        0x0 build/cooja/mtype468.a(frame802154.o)
 .note.gnu.property
                0x0000000000000000       0x20 build/cooja/mtype468.a(frame802154.o)
 .note.GNU-stack
                0x0000000000000000        0x0 build/cooja/mtype468.a(csma-security.o)
 .note.gnu.property
                0x0000000000000000       0x20 build/cooja/mtype468.a(csma-security.o)
 .note.GNU-stack
                0x0000000000000000        0x0 build/cooja/mtype468.a(uipbuf.o)
 .note.gnu.property
                0x0000000000000000       0x20 build/cooja/mtype468.a(uipbuf.o)
 .note.GNU-stack
                0x0000000000000000        0x0 build/cooja/mtype468.a(uip-icmp6.o)
 .note.gnu.property
                0x0000000000000000       0x20 build/cooja/mtype468.a(uip-icmp6.o)
 .note.GNU-stack
                0x0000000000000000        0x0 build/cooja/mtype468.a(uip-sr.o)
 .note.gnu.property
                0x0000000000000000       0x20 build/cooja/mtype468.a(uip-sr.o)
 .note.GNU-stack
                0x0000000000000000        0x0 build/cooja/mtype468.a(uip-packetqueue)
 .note.gnu.property
                0x0000000000000000       0x20 build/cooja/mtype468.a(uip-packetqueue)
 .note.GNU-stack
                0x0000000000000000        0x0 build/cooja/mtype468.a(uip-udp-packet.)
 .note.gnu.property
                0x0000000000000000       0x20 build/cooja/mtype468.a(uip-udp-packet.)
 .note.GNU-stack
                0x0000000000000000        0x0 build/cooja/mtype468.a(rpl-icmp6.o)
 .note.gnu.property
                0x0000000000000000       0x20 build/cooja/mtype468.a(rpl-icmp6.o)
 .note.GNU-stack
                0x0000000000000000        0x0 build/cooja/mtype468.a(rpl-neighbor.o)
 .note.gnu.property
                0x0000000000000000       0x20 build/cooja/mtype468.a(rpl-neighbor.o)
 .note.GNU-stack
                0x0000000000000000        0x0 build/cooja/mtype468.a(rpl-timers.o)
 .note.gnu.property
                0x0000000000000000       0x20 build/cooja/mtype468.a(rpl-timers.o)
 .note.GNU-stack
                0x0000000000000000        0x0 build/cooja/mtype468.a(rpl-ext-header.)
 .note.gnu.property
                0x0000000000000000       0x20 build/cooja/mtype468.a(rpl-ext-header.)
 .note.GNU-stack
                0x0000000000000000        0x0 build/cooja/mtype468.a(rpl-nbr-policy.)
 .note.gnu.property
                0x0000000000000000       0x20 build/cooja/mtype468.a(rpl-nbr-policy.)
 .note.GNU-stack
                0x0000000000000000        0x0 build/cooja/mtype468.a(rpl-mrhof.o)
 .note.gnu.property
                0x0000000000000000       0x20 build/cooja/mtype468.a(rpl-mrhof.o)
 .note.GNU-stack
                0x0000000000000000        0x0 /usr/lib/gcc/x86_64-linux-gnu/9/crtendS.o
 .note.gnu.property
                0x0000000000000000       0x20 /usr/lib/gcc/x86_64-linux-gnu/9/crtendS.o
 .note.gnu.property
                0x0000000000000000       0x20 /usr/lib/gcc/x86_64-linux-gnu/9/../../../x86_64-linux-gnu/crtn.o
 .note.GNU-stack
                0x0000000000000000        0x0 /usr/lib/gcc/x86_64-linux-gnu/9/../../../x86_64-linux-gnu/crtn.o

Memory Configuration

Name             Origin             Length             Attributes
*default*        0x0000000000000000 0xffffffffffffffff

Linker script and memory map

LOAD /usr/lib/gcc/x86_64-linux-gnu/9/../../../x86_64-linux-gnu/crti.o
LOAD /usr/lib/gcc/x86_64-linux-gnu/9/crtbeginS.o
LOAD Client.o
LOAD build/cooja/mtype468.o
LOAD build/cooja/obj/Image.o
LOAD build/cooja/obj/ImageDB.o
LOAD build/cooja/obj/TransferUDP.o
LOAD build/cooja/mtype468.a
LOAD /usr/lib/gcc/x86_64-linux-gnu/9/libgcc.a
LOAD /usr/lib/gcc/x86_64-linux-gnu/9/libgcc_s.so
START GROUP
LOAD /lib/x86_64-linux-gnu/libgcc_s.so.1
LOAD /usr/lib/gcc/x86_64-linux-gnu/9/libgcc.a
END GROUP
LOAD /usr/lib/gcc/x86_64-linux-gnu/9/../../../x86_64-linux-gnu/libc.so
START GROUP
LOAD /lib/x86_64-linux-gnu/libc.so.6
LOAD /usr/lib/x86_64-linux-gnu/libc_nonshared.a
LOAD /lib/x86_64-linux-gnu/ld-linux-x86-64.so.2
END GROUP
LOAD /usr/lib/gcc/x86_64-linux-gnu/9/libgcc.a
LOAD /usr/lib/gcc/x86_64-linux-gnu/9/libgcc_s.so
START GROUP
LOAD /lib/x86_64-linux-gnu/libgcc_s.so.1
LOAD /usr/lib/gcc/x86_64-linux-gnu/9/libgcc.a
END GROUP
LOAD /usr/lib/gcc/x86_64-linux-gnu/9/crtendS.o
LOAD /usr/lib/gcc/x86_64-linux-gnu/9/../../../x86_64-linux-gnu/crtn.o
                0x00000000000002a8                . = (SEGMENT_START ("text-segment", 0x0) + SIZEOF_HEADERS)

.note.gnu.property
                0x00000000000002a8       0x20
 .note.gnu.property
                0x00000000000002a8       0x20 /usr/lib/gcc/x86_64-linux-gnu/9/../../../x86_64-linux-gnu/crti.o

.note.gnu.build-id
                0x00000000000002c8       0x24
 *(.note.gnu.build-id)
 .note.gnu.build-id
                0x00000000000002c8       0x24 /usr/lib/gcc/x86_64-linux-gnu/9/../../../x86_64-linux-gnu/crti.o

.hash
 *(.hash)

.gnu.hash       0x00000000000002f0     0x14a4
 *(.gnu.hash)
 .gnu.hash      0x00000000000002f0     0x14a4 /usr/lib/gcc/x86_64-linux-gnu/9/../../../x86_64-linux-gnu/crti.o

.dynsym         0x0000000000001798     0x40f8
 *(.dynsym)
 .dynsym        0x0000000000001798     0x40f8 /usr/lib/gcc/x86_64-linux-gnu/9/../../../x86_64-linux-gnu/crti.o

.dynstr         0x0000000000005890     0x307c
 *(.dynstr)
 .dynstr        0x0000000000005890     0x307c /usr/lib/gcc/x86_64-linux-gnu/9/../../../x86_64-linux-gnu/crti.o

.gnu.version    0x000000000000890c      0x56a
 *(.gnu.version)
 .gnu.version   0x000000000000890c      0x56a /usr/lib/gcc/x86_64-linux-gnu/9/../../../x86_64-linux-gnu/crti.o

.gnu.version_d  0x0000000000008e78        0x0
 *(.gnu.version_d)
 .gnu.version_d
                0x0000000000008e78        0x0 /usr/lib/gcc/x86_64-linux-gnu/9/../../../x86_64-linux-gnu/crti.o

.gnu.version_r  0x0000000000008e78       0x40
 *(.gnu.version_r)
 .gnu.version_r
                0x0000000000008e78       0x40 /usr/lib/gcc/x86_64-linux-gnu/9/../../../x86_64-linux-gnu/crti.o

.rela.dyn       0x0000000000008eb8     0x1e18
 *(.rela.init)
 *(.rela.text .rela.text.* .rela.gnu.linkonce.t.*)
 .rela.text     0x0000000000008eb8        0x0 /usr/lib/gcc/x86_64-linux-gnu/9/../../../x86_64-linux-gnu/crti.o
 *(.rela.fini)
 *(.rela.rodata .rela.rodata.* .rela.gnu.linkonce.r.*)
 *(.rela.data .rela.data.* .rela.gnu.linkonce.d.*)
 .rela.data.rel.local
                0x0000000000008eb8      0x690 /usr/lib/gcc/x86_64-linux-gnu/9/../../../x86_64-linux-gnu/crti.o
 .rela.data.rel.ro
                0x0000000000009548      0x288 /usr/lib/gcc/x86_64-linux-gnu/9/../../../x86_64-linux-gnu/crti.o
 .rela.data.rel
                0x00000000000097d0      0x3a8 /usr/lib/gcc/x86_64-linux-gnu/9/../../../x86_64-linux-gnu/crti.o
 .rela.data.rel.ro.local
                0x0000000000009b78      0x5a0 /usr/lib/gcc/x86_64-linux-gnu/9/../../../x86_64-linux-gnu/crti.o
 *(.rela.tdata .rela.tdata.* .rela.gnu.linkonce.td.*)
 *(.rela.tbss .rela.tbss.* .rela.gnu.linkonce.tb.*)
 *(.rela.ctors)
 *(.rela.dtors)
 *(.rela.got)
 .rela.got      0x000000000000a118      0xb88 /usr/lib/gcc/x86_64-linux-gnu/9/../../../x86_64-linux-gnu/crti.o
 *(.rela.bss .rela.bss.* .rela.gnu.linkonce.b.*)
 *(.rela.ldata .rela.ldata.* .rela.gnu.linkonce.l.*)
 *(.rela.lbss .rela.lbss.* .rela.gnu.linkonce.lb.*)
 *(.rela.lrodata .rela.lrodata.* .rela.gnu.linkonce.lr.*)
 *(.rela.ifunc)
 .rela.ifunc    0x000000000000aca0        0x0 /usr/lib/gcc/x86_64-linux-gnu/9/../../../x86_64-linux-gnu/crti.o
 .rela.fini_array
                0x000000000000aca0       0x18 /usr/lib/gcc/x86_64-linux-gnu/9/../../../x86_64-linux-gnu/crti.o
 .rela.init_array
                0x000000000000acb8       0x18 /usr/lib/gcc/x86_64-linux-gnu/9/../../../x86_64-linux-gnu/crti.o

.rela.plt       0x000000000000acd0     0x2118
 *(.rela.plt)
 .rela.plt      0x000000000000acd0     0x2118 /usr/lib/gcc/x86_64-linux-gnu/9/../../../x86_64-linux-gnu/crti.o
 *(.rela.iplt)
                0x000000000000d000                . = ALIGN (CONSTANT (MAXPAGESIZE))

.init           0x000000000000d000       0x1b
 *(SORT_NONE(.init))
 .init          0x000000000000d000       0x16 /usr/lib/gcc/x86_64-linux-gnu/9/../../../x86_64-linux-gnu/crti.o
                0x000000000000d000                _init
 .init          0x000000000000d016        0x5 /usr/lib/gcc/x86_64-linux-gnu/9/../../../x86_64-linux-gnu/crtn.o

.plt            0x000000000000d020     0x1620
 *(.plt)
 .plt           0x000000000000d020     0x1620 /usr/lib/gcc/x86_64-linux-gnu/9/../../../x86_64-linux-gnu/crti.o
 *(.iplt)

.plt.got        0x000000000000e640       0x30
 *(.plt.got)
 .plt.got       0x000000000000e640       0x30 /usr/lib/gcc/x86_64-linux-gnu/9/../../../x86_64-linux-gnu/crti.o

.plt.sec        0x000000000000e670     0x1610
 *(.plt.sec)
 .plt.sec       0x000000000000e670     0x1610 /usr/lib/gcc/x86_64-linux-gnu/9/../../../x86_64-linux-gnu/crti.o

.text           0x000000000000fc80    0x190a9
 *(.text.unlikely .text.*_unlikely .text.unlikely.*)
 *(.text.exit .text.exit.*)
 *(.text.startup .text.startup.*)
 *(.text.hot .text.hot.*)
 *(SORT_BY_NAME(.text.sorted.*))
 *(.text .stub .text.* .gnu.linkonce.t.*)
 .text          0x000000000000fc80        0x0 /usr/lib/gcc/x86_64-linux-gnu/9/../../../x86_64-linux-gnu/crti.o
 .text          0x000000000000fc80       0xb9 /usr/lib/gcc/x86_64-linux-gnu/9/crtbeginS.o
 .text          0x000000000000fd39      0x136 Client.o
 .text          0x000000000000fe6f      0x384 build/cooja/mtype468.o
                0x000000000000ff20                platform_init_stage_one
                0x000000000000ff35                platform_init_stage_two
                0x000000000000ff4a                platform_init_stage_three
                0x000000000000ff5f                platform_main_loop
                0x000000000000fff9                Java_org_contikios_cooja_corecomm_Lib1_init
                0x0000000000010040                Java_org_contikios_cooja_corecomm_Lib1_getMemory
                0x00000000000100a0                Java_org_contikios_cooja_corecomm_Lib1_setMemory
                0x0000000000010139                Java_org_contikios_cooja_corecomm_Lib1_tick
                0x00000000000101c1                Java_org_contikios_cooja_corecomm_Lib1_setReferenceAddress
 .text          0x00000000000101f3      0x48c build/cooja/obj/Image.o
                0x00000000000101f3                tImage_loadBmp
                0x0000000000010444                tImage_saveBmp
                0x0000000000010611                tImage_destroy
 .text          0x000000000001067f      0x20e build/cooja/obj/ImageDB.o
                0x000000000001067f                tImageDb_get
                0x00000000000106f2                tImageDb_load
                0x00000000000107e9                tImageDb_create
                0x0000000000010824                tImageDb_destroy
 .text          0x000000000001088d      0x1c2 build/cooja/obj/TransferUDP.o
                0x000000000001088d                tTransferUDP_send
                0x00000000000109a9                tTransferUDP_register
                0x00000000000109eb                tTransferUDP_create
                0x0000000000010a29                tTransferUDP_destroy
 .text          0x0000000000010a4f       0x93 build/cooja/mtype468.a(simEnvChange.o)
                0x0000000000010a4f                doActionsBeforeTick
                0x0000000000010a98                doActionsAfterTick
 .text          0x0000000000010ae2       0xab build/cooja/mtype468.a(cooja_mt.o)
                0x0000000000010ae2                cooja_mt_start
                0x0000000000010b22                cooja_mt_exec
                0x0000000000010b65                cooja_mt_yield
 .text          0x0000000000010b8d      0x10e build/cooja/mtype468.a(cooja_mtarch.o)
                0x0000000000010b8d                cooja_mtarch_start
                0x0000000000010c30                cooja_sw
                0x0000000000010c5d                cooja_mtarch_exec
                0x0000000000010c8b                cooja_mtarch_yield
 .text          0x0000000000010c9b       0xcc build/cooja/mtype468.a(rtimer-arch.o)
                0x0000000000010c9b                rtimer_arch_init
                0x0000000000010cc1                rtimer_arch_schedule
                0x0000000000010ceb                rtimer_arch_next
                0x0000000000010cff                rtimer_arch_pending
                0x0000000000010d12                rtimer_arch_check
                0x0000000000010d53                rtimer_arch_now
 .text          0x0000000000010d67       0xe6 build/cooja/mtype468.a(beep.o)
                0x0000000000010d67                beep_alarm
                0x0000000000010d82                beep_beep
                0x0000000000010d9a                beep
                0x0000000000010daf                beep_down
                0x0000000000010dc7                beep_on
                0x0000000000010ddc                beep_off
                0x0000000000010df1                beep_spinup
                0x0000000000010e06                beep_quick
                0x0000000000010e1e                beep_long
 .text          0x0000000000010e4d       0x77 build/cooja/mtype468.a(leds-arch.o)
                0x0000000000010e66                leds_arch_init
 .text          0x0000000000010ec4       0x41 build/cooja/mtype468.a(moteid.o)
 .text          0x0000000000010f05       0xfa build/cooja/mtype468.a(pir-sensor.o)
 .text          0x0000000000010fff      0x194 build/cooja/mtype468.a(rs232.o)
                0x0000000000010fff                rs232_init
                0x000000000001100a                rs232_set_speed
                0x000000000001101a                rs232_set_input
                0x0000000000011034                rs232_send
                0x000000000001105f                rs232_print
                0x000000000001108a                slip_arch_writeb
 .text          0x0000000000011193       0xfa build/cooja/mtype468.a(vib-sensor.o)
 .text          0x000000000001128d       0x6f build/cooja/mtype468.a(clock.o)
                0x000000000001128d                clock_init
                0x0000000000011298                clock_time
                0x00000000000112ac                clock_seconds
                0x00000000000112d8                clock_delay
 .text          0x00000000000112fc      0x32a build/cooja/mtype468.a(cooja-log.o)
                0x00000000000112fc                simlog_char
                0x0000000000011356                simlog
                0x00000000000113f5                log_message
                0x000000000001143a                log_set_putchar_with_slip
                0x0000000000011451                log_putchar
                0x00000000000114d5                log_puts
                0x0000000000011502                log_printf
 .text          0x0000000000011626      0x39f build/cooja/mtype468.a(cfs-cooja.o)
                0x0000000000011626                cfs_open
                0x00000000000116a3                cfs_close
                0x00000000000116b8                cfs_read
                0x0000000000011780                cfs_write
                0x0000000000011893                cfs_seek
                0x0000000000011942                cfs_remove
                0x0000000000011972                cfs_opendir
                0x0000000000011989                cfs_readdir
                0x00000000000119a0                cfs_closedir
 .text          0x00000000000119c5      0x7a6 build/cooja/mtype468.a(cooja-radio.o)
                0x0000000000011a24                radio_set_channel
                0x0000000000011a3e                radio_set_txpower
                0x0000000000011a5b                radio_signal_strength_last
                0x0000000000011a6e                radio_signal_strength_current
                0x0000000000011a81                radio_LQI
 .text          0x000000000001216b      0x139 build/cooja/mtype468.a(eeprom.o)
                0x000000000001216b                eeprom_init
                0x0000000000012176                eeprom_read
                0x0000000000012202                eeprom_write
 .text          0x00000000000122a4       0x2f build/cooja/mtype468.a(random.o)
                0x00000000000122a4                random_init
                0x00000000000122c4                random_rand
 .text          0x00000000000122d3      0x35f build/cooja/mtype468.a(sensors.o)
                0x000000000001231c                sensors_first
                0x0000000000012330                sensors_next
                0x000000000001235f                sensors_changed
                0x00000000000123ac                sensors_find
 .text          0x0000000000012632      0x3ad build/cooja/mtype468.a(leds.o)
                0x0000000000012632                leds_init
                0x000000000001267d                leds_single_on
                0x00000000000126ea                leds_single_off
                0x0000000000012757                leds_single_toggle
                0x000000000001278f                leds_on
                0x0000000000012820                leds_off
                0x00000000000128b1                leds_toggle
                0x000000000001290d                leds_set
                0x0000000000012936                leds_get
 .text          0x00000000000129df      0x412 build/cooja/mtype468.a(gpio-hal-arch.o)
                0x00000000000129df                gpio_hal_arch_register_pin_callback
                0x0000000000012a86                gpio_hal_arch_init
                0x0000000000012ad3                gpio_hal_arch_no_port_interrupt_enable
                0x0000000000012b20                gpio_hal_arch_no_port_interrupt_disable
                0x0000000000012b6d                gpio_hal_arch_no_port_pin_cfg_set
                0x0000000000012ba3                gpio_hal_arch_no_port_pin_cfg_get
                0x0000000000012bd7                gpio_hal_arch_no_port_pin_set_input
                0x0000000000012bea                gpio_hal_arch_no_port_pin_set_output
                0x0000000000012bfd                gpio_hal_arch_no_port_set_pin
                0x0000000000012c21                gpio_hal_arch_no_port_clear_pin
                0x0000000000012c45                gpio_hal_arch_no_port_read_pin
                0x0000000000012c72                gpio_hal_arch_no_port_write_pin
                0x0000000000012c9c                gpio_hal_arch_no_port_set_pins
                0x0000000000012ceb                gpio_hal_arch_no_port_clear_pins
                0x0000000000012d3a                gpio_hal_arch_no_port_read_pins
                0x0000000000012d88                gpio_hal_arch_no_port_write_pins
 .text          0x0000000000012df1       0xa8 build/cooja/mtype468.a(buttons.o)
 .text          0x0000000000012e99      0x3a7 build/cooja/mtype468.a(contiki-main.o)
                0x0000000000012e99                main
 .text          0x0000000000013240       0xbd build/cooja/mtype468.a(autostart.o)
                0x0000000000013240                autostart_start
                0x00000000000132a1                autostart_exit
 .text          0x00000000000132fd      0x441 build/cooja/mtype468.a(ctimer.o)
                0x000000000001345f                ctimer_init
                0x0000000000013494                ctimer_set
                0x00000000000134d8                ctimer_set_with_process
                0x0000000000013592                ctimer_reset
                0x0000000000013603                ctimer_restart
                0x0000000000013674                ctimer_stop
                0x00000000000136d2                ctimer_expired
 .text          0x000000000001373e      0x527 build/cooja/mtype468.a(log.o)
                0x000000000001373e                log_6addr
                0x00000000000137a1                log_6addr_compact_snprint
                0x000000000001387c                log_6addr_compact
                0x00000000000138df                log_lladdr
                0x0000000000013960                log_lladdr_compact
                0x00000000000139dc                log_bytes
                0x0000000000013a39                log_set_level
                0x0000000000013b43                log_get_level
                0x0000000000013bfa                log_level_to_str
 .text          0x0000000000013c65       0x25 build/cooja/mtype468.a(energest.o)
                0x0000000000013c65                energest_init
                0x0000000000013c70                energest_flush
                0x0000000000013c7b                energest_get_total_time
 .text          0x0000000000013c8a      0x57c build/cooja/mtype468.a(etimer.o)
                0x0000000000013f32                etimer_request_poll
                0x0000000000013fe4                etimer_set
                0x000000000001401a                etimer_reset_with_new_interval
                0x0000000000014055                etimer_reset
                0x0000000000014080                etimer_restart
                0x00000000000140ab                etimer_adjust
                0x00000000000140dc                etimer_expired
                0x00000000000140fb                etimer_expiration_time
                0x000000000001411b                etimer_start_time
                0x0000000000014130                etimer_pending
                0x000000000001414a                etimer_next_expiration_time
                0x000000000001416b                etimer_stop
 .text          0x0000000000014206       0x36 build/cooja/mtype468.a(node-id.o)
                0x0000000000014206                node_id_init
 .text          0x000000000001423c      0x101 build/cooja/mtype468.a(rtimer.o)
                0x000000000001423c                rtimer_init
                0x000000000001424c                rtimer_set
                0x00000000000142cd                rtimer_run_next
 .text          0x000000000001433d      0x67a build/cooja/mtype468.a(process.o)
                0x000000000001433d                process_alloc_event
                0x0000000000014357                process_start
                0x00000000000145c8                process_exit
                0x00000000000145f4                process_init
                0x00000000000147f1                process_run
                0x0000000000014826                process_nevents
                0x0000000000014846                process_post
                0x000000000001490e                process_post_synch
                0x000000000001495c                process_poll
                0x0000000000014999                process_is_running
 .text          0x00000000000149b7       0xfb build/cooja/mtype468.a(timer.o)
                0x00000000000149b7                timer_set
                0x00000000000149e6                timer_reset
                0x0000000000014a22                timer_restart
                0x0000000000014a41                timer_expired
                0x0000000000014a7c                timer_remaining
 .text          0x0000000000014ab2      0x39b build/cooja/mtype468.a(list.o)
                0x0000000000014ab2                list_init
                0x0000000000014acc                list_head
                0x0000000000014ae1                list_copy
                0x0000000000014b02                list_tail
                0x0000000000014b4b                list_add
                0x0000000000014baf                list_push
                0x0000000000014bf2                list_chop
                0x0000000000014c7f                list_pop
                0x0000000000014cb9                list_remove
                0x0000000000014d45                list_length
                0x0000000000014d80                list_insert
                0x0000000000014de3                list_item_next
                0x0000000000014e06                list_contains
 .text          0x0000000000014e4d      0x56b build/cooja/mtype468.a(button-hal.o)
                0x0000000000015012                button_hal_get_by_id
                0x0000000000015060                button_hal_get_by_index
                0x0000000000015097                button_hal_get_state
                0x00000000000150fa                button_hal_init
 .text          0x00000000000153b8      0x229 build/cooja/mtype468.a(serial-line.o)
                0x00000000000153b8                serial_line_input_byte
                0x00000000000155aa                serial_line_init
 .text          0x00000000000155e1      0x181 build/cooja/mtype468.a(gpio-hal.o)
                0x00000000000155e1                gpio_hal_register_handler
                0x000000000001560a                gpio_hal_event_handler
                0x0000000000015675                gpio_hal_init
                0x0000000000015694                gpio_hal_arch_port_toggle_pin
                0x00000000000156cb                gpio_hal_arch_port_toggle_pins
                0x00000000000156fc                gpio_hal_arch_no_port_toggle_pin
                0x0000000000015736                gpio_hal_arch_no_port_toggle_pins
 .text          0x0000000000015762      0x35d build/cooja/mtype468.a(queuebuf.o)
                0x0000000000015777                queuebuf_init
                0x000000000001579a                queuebuf_numfree
                0x00000000000157b0                queuebuf_new_from_packetbuf
                0x0000000000015856                queuebuf_update_attr_from_packetbuf
                0x0000000000015899                queuebuf_update_from_packetbuf
                0x00000000000158f5                queuebuf_free
                0x0000000000015948                queuebuf_to_packetbuf
                0x00000000000159be                queuebuf_dataptr
                0x0000000000015a02                queuebuf_datalen
                0x0000000000015a32                queuebuf_addr
                0x0000000000015a79                queuebuf_attr
                0x0000000000015ab4                queuebuf_debug_print
 .text          0x0000000000015abf      0x4a9 build/cooja/mtype468.a(packetbuf.o)
                0x0000000000015abf                packetbuf_clear
                0x0000000000015aed                packetbuf_copyfrom
                0x0000000000015b47                packetbuf_copyto
                0x0000000000015bee                packetbuf_hdralloc
                0x0000000000015c7d                packetbuf_hdrreduce
                0x0000000000015ccd                packetbuf_set_datalen
                0x0000000000015ce9                packetbuf_dataptr
                0x0000000000015d0f                packetbuf_hdrptr
                0x0000000000015d20                packetbuf_datalen
                0x0000000000015d31                packetbuf_hdrlen
                0x0000000000015d4d                packetbuf_totlen
                0x0000000000015d70                packetbuf_remaininglen
                0x0000000000015d88                packetbuf_attr_clear
                0x0000000000015ded                packetbuf_attr_copyto
                0x0000000000015e38                packetbuf_attr_copyfrom
                0x0000000000015e83                packetbuf_set_attr
                0x0000000000015eb3                packetbuf_attr
                0x0000000000015ed4                packetbuf_set_addr
                0x0000000000015f1a                packetbuf_addr
                0x0000000000015f44                packetbuf_holds_broadcast
 .text          0x0000000000015f68      0x12b build/cooja/mtype468.a(netstack.o)
                0x0000000000015f68                netstack_process_ip_callback
                0x0000000000016009                netstack_ip_packet_processor_add
                0x0000000000016039                uip_ds6_ip_packet_processor_rm
                0x0000000000016062                netstack_init
 .text          0x0000000000016093       0x80 build/cooja/mtype468.a(linkaddr.o)
                0x0000000000016093                linkaddr_copy
                0x00000000000160b4                linkaddr_cmp
                0x00000000000160ea                linkaddr_set_node_addr
 .text          0x0000000000016113      0x29b build/cooja/mtype468.a(csma.o)
 .text          0x00000000000163ae      0xaba build/cooja/mtype468.a(csma-output.o)
                0x0000000000016b82                csma_output_packet
                0x0000000000016e39                csma_output_init
 .text          0x0000000000016e68      0xe95 build/cooja/mtype468.a(uip-ds6.o)
                0x0000000000016e68                uip_ds6_default_prefix
                0x0000000000016e79                uip_ds6_set_default_prefix
                0x0000000000016ea1                uip_ds6_init
                0x0000000000017131                uip_ds6_periodic
                0x00000000000171d3                uip_ds6_list_loop
                0x00000000000172bc                uip_ds6_prefix_add
                0x000000000001738d                uip_ds6_prefix_rm
                0x00000000000173ab                uip_ds6_prefix_lookup
                0x0000000000017402                uip_ds6_is_addr_onlink
                0x0000000000017496                uip_ds6_addr_add
                0x00000000000175db                uip_ds6_addr_rm
                0x0000000000017693                uip_ds6_addr_lookup
                0x00000000000176e5                uip_ds6_get_link_local
                0x000000000001778a                uip_ds6_get_global
                0x000000000001782f                uip_ds6_maddr_add
                0x00000000000178a8                uip_ds6_maddr_rm
                0x00000000000178c6                uip_ds6_maddr_lookup
                0x000000000001791b                uip_ds6_aaddr_add
                0x0000000000017994                uip_ds6_aaddr_rm
                0x00000000000179b2                uip_ds6_aaddr_lookup
                0x0000000000017a07                uip_ds6_select_src
                0x0000000000017b91                uip_ds6_set_addr_iid
                0x0000000000017bca                uip_ds6_set_lladdr_from_iid
                0x0000000000017c01                get_match_length
                0x0000000000017caf                uip_ds6_compute_reachable_time
 .text          0x0000000000017cfd      0x5a0 build/cooja/mtype468.a(uiplib.o)
                0x0000000000017cfd                uiplib_ip6addrconv
                0x0000000000017ee3                uiplib_ip4addrconv
                0x0000000000017fb5                uiplib_ipaddr_print
                0x0000000000018018                uiplib_ipaddr_snprint
 .text          0x000000000001829d      0x87f build/cooja/mtype468.a(tcpip.o)
                0x00000000000182cd                tcpip_output
                0x0000000000018365                udp_attach
                0x0000000000018393                udp_new
                0x00000000000183ee                udp_broadcast_new
                0x000000000001859f                tcpip_input
                0x0000000000018778                tcpip_ipv6_output
                0x00000000000189d1                tcpip_poll_udp
                0x00000000000189ff                tcpip_uipcall
 .text          0x0000000000018b1c      0x3f2 build/cooja/mtype468.a(uip-ds6-route.o)
                0x0000000000018b75                uip_ds6_route_init
                0x0000000000018b9b                uip_ds6_route_count_nexthop_neighbors
                0x0000000000018baa                uip_ds6_route_nexthop
                0x0000000000018bbd                uip_ds6_route_head
                0x0000000000018bcc                uip_ds6_route_next
                0x0000000000018bdf                uip_ds6_route_is_nexthop
                0x0000000000018bf2                uip_ds6_route_num_routes
                0x0000000000018c01                uip_ds6_route_lookup
                0x0000000000018c14                uip_ds6_route_add
                0x0000000000018c30                uip_ds6_route_rm
                0x0000000000018c3f                uip_ds6_route_rm_by_nexthop
                0x0000000000018c4e                uip_ds6_defrt_head
                0x0000000000018c67                uip_ds6_defrt_add
                0x0000000000018d24                uip_ds6_defrt_rm
                0x0000000000018d97                uip_ds6_defrt_lookup
                0x0000000000018e0e                uip_ds6_defrt_choose
                0x0000000000018e91                uip_ds6_defrt_periodic
 .text          0x0000000000018f0e      0x416 build/cooja/mtype468.a(uip-ds6-nbr.o)
                0x0000000000018f0e                uip_ds6_neighbors_init
                0x0000000000018f37                uip_ds6_nbr_add
                0x0000000000018fd5                uip_ds6_nbr_rm
                0x0000000000019032                uip_ds6_nbr_update_ll
                0x0000000000019137                uip_ds6_nbr_get_ipaddr
                0x0000000000019157                uip_ds6_nbr_get_ll
                0x000000000001917f                uip_ds6_nbr_num
                0x00000000000191d1                uip_ds6_nbr_head
                0x00000000000191ea                uip_ds6_nbr_next
                0x0000000000019212                uip_ds6_nbr_lookup
                0x000000000001927b                uip_ds6_nbr_ll_lookup
                0x00000000000192a3                uip_ds6_nbr_ipaddr_from_lladdr
                0x00000000000192d7                uip_ds6_nbr_lladdr_from_ipaddr
                0x0000000000019313                uip_ds6_link_callback
 .text          0x0000000000019324     0x170a build/cooja/mtype468.a(uip6.o)
                0x00000000000193e8                uip_chksum
                0x00000000000194ce                uip_icmp6chksum
                0x00000000000194e2                uip_udpchksum
                0x00000000000194f6                uip_init
                0x000000000001955d                uip_remove_ext_hdr
                0x000000000001965e                uip_udp_new
                0x0000000000019a07                uip_process
                0x000000000001a8b4                uip_htons
                0x000000000001a8d7                uip_htonl
                0x000000000001a91f                uip_send
 .text          0x000000000001aa2e      0x839 build/cooja/mtype468.a(uip-nd6.o)
                0x000000000001b250                uip_nd6_init
 .text          0x000000000001b267      0x481 build/cooja/mtype468.a(simple-udp.o)
                0x000000000001b298                simple_udp_send
                0x000000000001b30a                simple_udp_sendto
                0x000000000001b37c                simple_udp_sendto_port
                0x000000000001b3ec                simple_udp_register
 .text          0x000000000001b6e8     0x371a build/cooja/mtype468.a(sicslowpan.o)
                0x000000000001bec3                netstack_sniffer_add
                0x000000000001bedd                netstack_sniffer_remove
                0x000000000001edcb                sicslowpan_init
                0x000000000001edf2                sicslowpan_get_last_rssi
 .text          0x000000000001ee02      0x665 build/cooja/mtype468.a(rpl.o)
                0x000000000001ee02                rpl_lollipop_greater_than
                0x000000000001ee66                rpl_get_global_address
                0x000000000001f006                rpl_link_callback
                0x000000000001f070                rpl_has_joined
                0x000000000001f0a3                rpl_is_reachable
                0x000000000001f149                rpl_reset_prefix
                0x000000000001f1c0                rpl_set_prefix_from_addr
                0x000000000001f2d2                rpl_set_prefix
                0x000000000001f43c                rpl_set_leaf_only
                0x000000000001f456                rpl_get_leaf_only
 .text          0x000000000001f467     0x11e4 build/cooja/mtype468.a(rpl-dag.o)
                0x000000000001f467                rpl_dag_state_to_str
                0x000000000001f4c5                rpl_dag_get_root_ipaddr
                0x000000000001f50f                rpl_dag_leave
                0x000000000001f5b7                rpl_dag_poison_and_leave
                0x000000000001f5d5                rpl_dag_periodic
                0x000000000001f699                rpl_is_addr_in_our_dag
                0x000000000001f6f2                rpl_get_default_instance
                0x000000000001f719                rpl_get_any_dag
                0x000000000001f786                rpl_refresh_routes
                0x000000000001f7e8                rpl_global_repair
                0x000000000001f8a4                rpl_local_repair
                0x000000000001f903                rpl_dag_ready_to_advertise
                0x000000000001f95b                rpl_dag_update_state
                0x0000000000020207                rpl_process_dio
                0x00000000000202a6                rpl_process_dis
                0x00000000000202f7                rpl_process_dao
                0x00000000000203a0                rpl_process_dao_ack
                0x000000000002044d                rpl_process_hbh
                0x00000000000204ac                rpl_dag_init_root
                0x0000000000020627                rpl_dag_init
 .text          0x000000000002064b      0x354 build/cooja/mtype468.a(rpl-dag-root.o)
                0x000000000002064b                rpl_dag_root_print_links
                0x00000000000207ba                rpl_dag_root_set_prefix
                0x00000000000207f6                rpl_dag_root_start
                0x000000000002095f                rpl_dag_root_is_root
 .text          0x000000000002099f       0x49 build/cooja/mtype468.a(watchdog.o)
                0x000000000002099f                watchdog_init
                0x00000000000209aa                watchdog_start
                0x00000000000209b5                watchdog_periodic
                0x00000000000209d2                watchdog_stop
                0x00000000000209dd                watchdog_reboot
 .text          0x00000000000209e8       0x61 build/cooja/mtype468.a(int-master.o)
                0x00000000000209e8                int_master_enable
                0x00000000000209fd                int_master_read_and_disable
                0x0000000000020a1d                int_master_status_set
                0x0000000000020a34                int_master_is_enabled
 .text          0x0000000000020a49      0x123 build/cooja/mtype468.a(stimer.o)
                0x0000000000020a49                stimer_set
                0x0000000000020a78                stimer_reset
                0x0000000000020ab4                stimer_restart
                0x0000000000020ad3                stimer_expired
                0x0000000000020b15                stimer_remaining
                0x0000000000020b4b                stimer_elapsed
 .text          0x0000000000020b6c      0x21a build/cooja/mtype468.a(memb.o)
                0x0000000000020b6c                memb_init
                0x0000000000020bcf                memb_alloc
                0x0000000000020c49                memb_free
                0x0000000000020cdc                memb_inmemb
                0x0000000000020d33                memb_numfree
 .text          0x0000000000020d86       0x31 build/cooja/mtype468.a(assert.o)
                0x0000000000020d86                _xassert
 .text          0x0000000000020db7      0x19d build/cooja/mtype468.a(ringbuf.o)
                0x0000000000020db7                ringbuf_init
                0x0000000000020df8                ringbuf_put
                0x0000000000020e87                ringbuf_get
                0x0000000000020f05                ringbuf_size
                0x0000000000020f21                ringbuf_elements
 .text          0x0000000000020f54      0xc97 build/cooja/mtype468.a(nbr-table.o)
                0x00000000000213b3                nbr_table_count_entries
                0x0000000000021455                nbr_table_gc_get_worst
                0x0000000000021499                nbr_table_can_accept_new
                0x000000000002164b                nbr_table_entry_is_allowed
                0x00000000000216f5                nbr_table_register
                0x0000000000021787                nbr_table_is_registered
                0x00000000000217de                nbr_table_head
                0x0000000000021849                nbr_table_next
                0x00000000000218c3                nbr_table_add_lladdr
                0x0000000000021a20                nbr_table_get_from_lladdr
                0x0000000000021a7c                nbr_table_remove
                0x0000000000021ad0                nbr_table_lock
                0x0000000000021b02                nbr_table_unlock
                0x0000000000021b34                nbr_table_get_lladdr
                0x0000000000021b77                nbr_table_clear
                0x0000000000021bb4                nbr_table_key_head
                0x0000000000021bcd                nbr_table_key_next
 .text          0x0000000000021beb      0x443 build/cooja/mtype468.a(link-stats.o)
                0x0000000000021beb                link_stats_from_lladdr
                0x0000000000021c13                link_stats_get_lladdr
                0x0000000000021c3b                link_stats_is_fresh
                0x0000000000021c83                guess_etx_from_rssi
                0x0000000000021d08                link_stats_packet_sent
                0x0000000000021e5c                link_stats_input_callback
                0x0000000000021f93                link_stats_reset
                0x0000000000021fef                link_stats_init
 .text          0x000000000002202e      0x1e2 build/cooja/mtype468.a(mac-sequence.o)
                0x000000000002202e                mac_sequence_is_duplicate
                0x0000000000022113                mac_sequence_register_seqno
 .text          0x0000000000022210       0x3a build/cooja/mtype468.a(mac.o)
                0x0000000000022210                mac_call_sent_callback
 .text          0x000000000002224a      0x452 build/cooja/mtype468.a(framer-802154.o)
                0x00000000000223e5                framer_802154_setup_params
 .text          0x000000000002269c      0xcaa build/cooja/mtype468.a(frame802154.o)
                0x00000000000226ca                frame802154_get_pan_id
                0x00000000000226db                frame802154_set_pan_id
                0x00000000000226f7                frame802154_has_panid
                0x00000000000228d6                frame802154_check_dest_panid
                0x0000000000022975                frame802154_is_broadcast_addr
                0x00000000000229cc                frame802154_extract_linkaddr
                0x0000000000022c66                frame802154_hdrlen
                0x0000000000022ce5                frame802154_create_fcf
                0x0000000000022db7                frame802154_create
                0x0000000000022f61                frame802154_parse_fcf
                0x0000000000023058                frame802154_parse
 .text          0x0000000000023346       0x3d build/cooja/mtype468.a(csma-security.o)
                0x0000000000023346                csma_security_create_frame
                0x000000000002336c                csma_security_parse_frame
 .text          0x0000000000023383      0x595 build/cooja/mtype468.a(uipbuf.o)
                0x0000000000023383                uipbuf_clear
                0x00000000000233b5                uipbuf_add_ext_hdr
                0x000000000002344d                uipbuf_set_len
                0x000000000002347f                uipbuf_set_len_field
                0x00000000000234b2                uipbuf_get_len_field
                0x00000000000234dd                uipbuf_get_next_header
                0x0000000000023636                uipbuf_get_last_header
                0x00000000000236c9                uipbuf_search_header
                0x0000000000023790                uipbuf_get_attr
                0x00000000000237c1                uipbuf_set_attr
                0x0000000000023801                uipbuf_set_default_attr
                0x0000000000023841                uipbuf_clear_attr
                0x0000000000023868                uipbuf_set_attr_flag
                0x000000000002388b                uipbuf_clr_attr_flag
                0x00000000000238b4                uipbuf_is_attr_flag
                0x00000000000238d9                uipbuf_init
 .text          0x0000000000023918      0x8af build/cooja/mtype468.a(uip-icmp6.o)
                0x0000000000023995                uip_icmp6_input
                0x00000000000239f3                uip_icmp6_register_input_handler
                0x0000000000023b85                uip_icmp6_error_output
                0x0000000000023ee8                uip_icmp6_send
                0x0000000000024134                uip_icmp6_echo_reply_callback_add
                0x000000000002417b                uip_icmp6_echo_reply_callback_rm
                0x00000000000241a4                uip_icmp6_init
 .text          0x00000000000241c7      0x7bb build/cooja/mtype468.a(uip-sr.o)
                0x00000000000241c7                uip_sr_num_nodes
                0x0000000000024272                uip_sr_get_node
                0x00000000000242da                uip_sr_is_addr_reachable
                0x00000000000243a2                uip_sr_expire_parent
                0x0000000000024405                uip_sr_update_node
                0x0000000000024576                uip_sr_init
                0x00000000000245a6                uip_sr_node_head
                0x00000000000245bf                uip_sr_node_next
                0x00000000000245dd                uip_sr_periodic
                0x00000000000246ff                uip_sr_free_all
                0x000000000002477b                uip_sr_link_snprint
 .text          0x0000000000024982      0x1b0 build/cooja/mtype468.a(uip-packetqueue)
                0x00000000000249be                uip_packetqueue_new
                0x00000000000249d8                uip_packetqueue_alloc
                0x0000000000024a4f                uip_packetqueue_free
                0x0000000000024aa4                uip_packetqueue_buf
                0x0000000000024ad0                uip_packetqueue_buflen
                0x0000000000024aff                uip_packetqueue_set_buflen
 .text          0x0000000000024b32      0x144 build/cooja/mtype468.a(uip-udp-packet.)
                0x0000000000024b32                uip_udp_packet_send
                0x0000000000024bb1                uip_udp_packet_sendto
 .text          0x0000000000024c76     0x16d9 build/cooja/mtype468.a(rpl-icmp6.o)
                0x0000000000024e0a                rpl_icmp6_update_nbr_table
                0x0000000000024ebf                rpl_icmp6_dis_output
                0x00000000000255e1                rpl_icmp6_dio_output
                0x0000000000025f0e                rpl_icmp6_dao_output
                0x000000000002627e                rpl_icmp6_dao_ack_output
                0x0000000000026314                rpl_icmp6_init
 .text          0x000000000002634f      0xae7 build/cooja/mtype468.a(rpl-neighbor.o)
                0x00000000000263e6                rpl_neighbor_snprint
                0x000000000002671d                rpl_neighbor_print_list
                0x00000000000267f4                rpl_neighbor_count
                0x00000000000268df                rpl_neighbor_get_from_lladdr
                0x000000000002690a                rpl_neighbor_is_acceptable_parent
                0x0000000000026956                rpl_neighbor_get_link_metric
                0x00000000000269a2                rpl_neighbor_rank_via_nbr
                0x00000000000269ee                rpl_neighbor_get_lladdr
                0x0000000000026a19                rpl_neighbor_get_ipaddr
                0x0000000000026a47                rpl_neighbor_get_link_stats
                0x0000000000026a75                rpl_neighbor_is_fresh
                0x0000000000026aa3                rpl_neighbor_is_parent
                0x0000000000026adc                rpl_neighbor_set_preferred_parent
                0x0000000000026b93                rpl_neighbor_remove_all
                0x0000000000026bf9                rpl_neighbor_get_from_ipaddr
                0x0000000000026d32                rpl_neighbor_select_best
                0x0000000000026e12                rpl_neighbor_init
 .text          0x0000000000026e36      0xce7 build/cooja/mtype468.a(rpl-timers.o)
                0x0000000000026e36                rpl_timers_schedule_periodic_dis
                0x0000000000026fe3                rpl_timers_dio_reset
                0x0000000000027164                rpl_timers_schedule_unicast_dio
                0x000000000002733f                rpl_timers_schedule_dao
                0x0000000000027442                rpl_timers_schedule_dao_ack
                0x00000000000274fe                rpl_timers_notify_dao_ack
                0x0000000000027570                get_probing_delay
                0x00000000000275bd                get_probing_target
                0x0000000000027805                rpl_schedule_probing
                0x0000000000027846                rpl_schedule_probing_now
                0x00000000000278d1                rpl_timers_unschedule_leaving
                0x0000000000027915                rpl_timers_schedule_leaving
                0x000000000002796a                rpl_timers_init
                0x0000000000027a13                rpl_timers_stop_dag_timers
                0x0000000000027aa0                rpl_timers_unschedule_state_update
                0x0000000000027aca                rpl_timers_schedule_state_update
 .text          0x0000000000027b1d      0xe0b build/cooja/mtype468.a(rpl-ext-header.)
                0x0000000000027b1d                rpl_ext_header_srh_get_next_hop
                0x0000000000027c2b                rpl_ext_header_srh_update
                0x00000000000282d5                rpl_ext_header_hbh_update
                0x0000000000028675                rpl_ext_header_update
                0x000000000002871f                rpl_ext_header_remove
 .text          0x0000000000028928       0x8d build/cooja/mtype468.a(rpl-nbr-policy.)
                0x0000000000028970                rpl_nbr_gc_get_worst
 .text          0x00000000000289b5      0x374 build/cooja/mtype468.a(rpl-mrhof.o)
 .text          0x0000000000028d29        0x0 /usr/lib/gcc/x86_64-linux-gnu/9/crtendS.o
 .text          0x0000000000028d29        0x0 /usr/lib/gcc/x86_64-linux-gnu/9/../../../x86_64-linux-gnu/crtn.o
 *(.gnu.warning)

.fini           0x0000000000028d2c        0xd
 *(SORT_NONE(.fini))
 .fini          0x0000000000028d2c        0x8 /usr/lib/gcc/x86_64-linux-gnu/9/../../../x86_64-linux-gnu/crti.o
                0x0000000000028d2c                _fini
 .fini          0x0000000000028d34        0x5 /usr/lib/gcc/x86_64-linux-gnu/9/../../../x86_64-linux-gnu/crtn.o
                [!provide]                        PROVIDE (__etext = .)
                [!provide]                        PROVIDE (_etext = .)
                [!provide]                        PROVIDE (etext = .)
                0x0000000000029000                . = ALIGN (CONSTANT (MAXPAGESIZE))
                0x0000000000029000                . = SEGMENT_START ("rodata-segment", (ALIGN (CONSTANT (MAXPAGESIZE)) + (. & (CONSTANT (MAXPAGESIZE) - 0x1))))

.rodata         0x0000000000029000      0x6b4
 *(.rodata .rodata.* .gnu.linkonce.r.*)
 .rodata        0x0000000000029000       0x82 Client.o
 .rodata        0x0000000000029082       0x31 build/cooja/obj/Image.o
 .rodata        0x00000000000290b3       0x2e build/cooja/obj/ImageDB.o
 .rodata        0x00000000000290e1       0x4c build/cooja/obj/TransferUDP.o
 .rodata        0x000000000002912d        0x6 build/cooja/mtype468.a(leds-arch.o)
                0x000000000002912d                leds_arch_leds
 .rodata        0x0000000000029133        0x4 build/cooja/mtype468.a(pir-sensor.o)
 .rodata        0x0000000000029137        0x6 build/cooja/mtype468.a(rs232.o)
 .rodata        0x000000000002913d        0xa build/cooja/mtype468.a(vib-sensor.o)
 *fill*         0x0000000000029147        0x1 
 .rodata        0x0000000000029148       0x27 build/cooja/mtype468.a(cfs-cooja.o)
 *fill*         0x000000000002916f        0x1 
 .rodata        0x0000000000029170       0x68 build/cooja/mtype468.a(cooja-radio.o)
 .rodata        0x00000000000291d8        0x8 build/cooja/mtype468.a(sensors.o)
 .rodata        0x00000000000291e0       0x14 build/cooja/mtype468.a(buttons.o)
                0x00000000000291ec                button_hal_button_count
 *fill*         0x00000000000291f4        0x4 
 .rodata        0x00000000000291f8      0x104 build/cooja/mtype468.a(contiki-main.o)
 .rodata        0x00000000000292fc        0xf build/cooja/mtype468.a(ctimer.o)
 *fill*         0x000000000002930b        0x1 
 .rodata        0x000000000002930c       0xc4 build/cooja/mtype468.a(log.o)
 .rodata        0x00000000000293d0        0xc build/cooja/mtype468.a(etimer.o)
 .rodata        0x00000000000293dc       0x13 build/cooja/mtype468.a(button-hal.o)
 .rodata        0x00000000000293ef        0xe build/cooja/mtype468.a(serial-line.o)
 *fill*         0x00000000000293fd        0x3 
 .rodata        0x0000000000029400        0x8 build/cooja/mtype468.a(linkaddr.o)
                0x0000000000029400                linkaddr_null
 .rodata        0x0000000000029408        0x5 build/cooja/mtype468.a(csma.o)
 *fill*         0x000000000002940d        0x3 
 .rodata        0x0000000000029410       0x34 build/cooja/mtype468.a(csma-output.o)
 .rodata        0x0000000000029444       0x2d build/cooja/mtype468.a(uiplib.o)
 .rodata        0x0000000000029471        0xd build/cooja/mtype468.a(tcpip.o)
 *fill*         0x000000000002947e        0x2 
 .rodata        0x0000000000029480       0x4d build/cooja/mtype468.a(uip-ds6-route.o)
 .rodata        0x00000000000294cd       0x13 build/cooja/mtype468.a(simple-udp.o)
 .rodata        0x00000000000294e0       0x1d build/cooja/mtype468.a(sicslowpan.o)
                0x00000000000294e0                unc_llconf
                0x00000000000294e4                unc_ctxconf
                0x00000000000294e8                unc_mxconf
                0x00000000000294ec                llprefix
 .rodata        0x00000000000294fd        0x9 build/cooja/mtype468.a(rpl.o)
 .rodata        0x0000000000029506       0xd7 build/cooja/mtype468.a(rpl-dag.o)
 *fill*         0x00000000000295dd        0x3 
 .rodata        0x00000000000295e0       0x25 build/cooja/mtype468.a(assert.o)
 .rodata        0x0000000000029605       0x44 build/cooja/mtype468.a(uip-sr.o)
 *fill*         0x0000000000029649        0x7 
 .rodata        0x0000000000029650       0x58 build/cooja/mtype468.a(rpl-neighbor.o)
 .rodata        0x00000000000296a8        0xc build/cooja/mtype468.a(rpl-timers.o)

.rodata1
 *(.rodata1)

.eh_frame_hdr   0x00000000000296b4     0x16ac
 *(.eh_frame_hdr)
 .eh_frame_hdr  0x00000000000296b4     0x16ac Client.o
                0x00000000000296b4                __GNU_EH_FRAME_HDR
 *(.eh_frame_entry .eh_frame_entry.*)

.eh_frame       0x000000000002ad60     0x5b1c
 *(.eh_frame)
 .eh_frame      0x000000000002ad60       0x40 /usr/lib/gcc/x86_64-linux-gnu/9/../../../x86_64-linux-gnu/crti.o
 .eh_frame      0x000000000002ada0       0x18 /usr/lib/gcc/x86_64-linux-gnu/9/../../../x86_64-linux-gnu/crti.o
                                         0x30 (size before relaxing)
 .eh_frame      0x000000000002adb8       0x18 /usr/lib/gcc/x86_64-linux-gnu/9/../../../x86_64-linux-gnu/crti.o
                                         0x30 (size before relaxing)
 .eh_frame      0x000000000002add0       0x20 Client.o
                                         0x38 (size before relaxing)
 .eh_frame      0x000000000002adf0      0x178 build/cooja/mtype468.o
                                        0x190 (size before relaxing)
 .eh_frame      0x000000000002af68       0x68 build/cooja/obj/Image.o
                                         0x80 (size before relaxing)
 .eh_frame      0x000000000002afd0       0x88 build/cooja/obj/ImageDB.o
                                         0xa0 (size before relaxing)
 .eh_frame      0x000000000002b058       0x80 build/cooja/obj/TransferUDP.o
                                         0x98 (size before relaxing)
 .eh_frame      0x000000000002b0d8       0x40 build/cooja/mtype468.a(simEnvChange.o)
                                         0x58 (size before relaxing)
 .eh_frame      0x000000000002b118       0x60 build/cooja/mtype468.a(cooja_mt.o)
                                         0x78 (size before relaxing)
 .eh_frame      0x000000000002b178       0x80 build/cooja/mtype468.a(cooja_mtarch.o)
                                         0x98 (size before relaxing)
 .eh_frame      0x000000000002b1f8       0xc0 build/cooja/mtype468.a(rtimer-arch.o)
                                         0xd8 (size before relaxing)
 .eh_frame      0x000000000002b2b8      0x160 build/cooja/mtype468.a(beep.o)
                                        0x178 (size before relaxing)
 .eh_frame      0x000000000002b418       0x80 build/cooja/mtype468.a(leds-arch.o)
                                         0x98 (size before relaxing)
 .eh_frame      0x000000000002b498       0x40 build/cooja/mtype468.a(moteid.o)
                                         0x58 (size before relaxing)
 .eh_frame      0x000000000002b4d8       0xa0 build/cooja/mtype468.a(pir-sensor.o)
                                         0xb8 (size before relaxing)
 .eh_frame      0x000000000002b578      0x100 build/cooja/mtype468.a(rs232.o)
                                        0x118 (size before relaxing)
 .eh_frame      0x000000000002b678       0xa0 build/cooja/mtype468.a(vib-sensor.o)
                                         0xb8 (size before relaxing)
 .eh_frame      0x000000000002b718       0xc0 build/cooja/mtype468.a(clock.o)
                                         0xd8 (size before relaxing)
 .eh_frame      0x000000000002b7d8      0x128 build/cooja/mtype468.a(cooja-log.o)
                                        0x140 (size before relaxing)
 .eh_frame      0x000000000002b900      0x160 build/cooja/mtype468.a(cfs-cooja.o)
                                        0x178 (size before relaxing)
 .eh_frame      0x000000000002ba60      0x340 build/cooja/mtype468.a(cooja-radio.o)
                                        0x358 (size before relaxing)
 .eh_frame      0x000000000002bda0       0xa0 build/cooja/mtype468.a(eeprom.o)
                                         0xb8 (size before relaxing)
 .eh_frame      0x000000000002be40       0x40 build/cooja/mtype468.a(random.o)
                                         0x58 (size before relaxing)
 .eh_frame      0x000000000002be80       0xc0 build/cooja/mtype468.a(sensors.o)
                                         0xd8 (size before relaxing)
 .eh_frame      0x000000000002bf40      0x120 build/cooja/mtype468.a(leds.o)
                                        0x138 (size before relaxing)
 .eh_frame      0x000000000002c060      0x220 build/cooja/mtype468.a(gpio-hal-arch.o)
                                        0x238 (size before relaxing)
 .eh_frame      0x000000000002c280       0xa0 build/cooja/mtype468.a(buttons.o)
                                         0xb8 (size before relaxing)
 .eh_frame      0x000000000002c320       0x20 build/cooja/mtype468.a(contiki-main.o)
                                         0x38 (size before relaxing)
 .eh_frame      0x000000000002c340       0x40 build/cooja/mtype468.a(autostart.o)
                                         0x58 (size before relaxing)
 .eh_frame      0x000000000002c380      0x100 build/cooja/mtype468.a(ctimer.o)
                                        0x118 (size before relaxing)
 .eh_frame      0x000000000002c480      0x120 build/cooja/mtype468.a(log.o)
                                        0x138 (size before relaxing)
 .eh_frame      0x000000000002c5a0       0x60 build/cooja/mtype468.a(energest.o)
                                         0x78 (size before relaxing)
 .eh_frame      0x000000000002c600      0x1e0 build/cooja/mtype468.a(etimer.o)
                                        0x1f8 (size before relaxing)
 .eh_frame      0x000000000002c7e0       0x20 build/cooja/mtype468.a(node-id.o)
                                         0x38 (size before relaxing)
 .eh_frame      0x000000000002c800       0x60 build/cooja/mtype468.a(rtimer.o)
                                         0x78 (size before relaxing)
 .eh_frame      0x000000000002c860      0x1c8 build/cooja/mtype468.a(process.o)
                                        0x1e0 (size before relaxing)
 .eh_frame      0x000000000002ca28       0xa0 build/cooja/mtype468.a(timer.o)
                                         0xb8 (size before relaxing)
 .eh_frame      0x000000000002cac8      0x1a0 build/cooja/mtype468.a(list.o)
                                        0x1b8 (size before relaxing)
 .eh_frame      0x000000000002cc68      0x160 build/cooja/mtype468.a(button-hal.o)
                                        0x178 (size before relaxing)
 .eh_frame      0x000000000002cdc8       0x60 build/cooja/mtype468.a(serial-line.o)
                                         0x78 (size before relaxing)
 .eh_frame      0x000000000002ce28       0xe0 build/cooja/mtype468.a(gpio-hal.o)
                                         0xf8 (size before relaxing)
 .eh_frame      0x000000000002cf08      0x1a0 build/cooja/mtype468.a(queuebuf.o)
                                        0x1b8 (size before relaxing)
 .eh_frame      0x000000000002d0a8      0x288 build/cooja/mtype468.a(packetbuf.o)
                                        0x2a0 (size before relaxing)
 .eh_frame      0x000000000002d330       0x80 build/cooja/mtype468.a(netstack.o)
                                         0x98 (size before relaxing)
 .eh_frame      0x000000000002d3b0       0x60 build/cooja/mtype468.a(linkaddr.o)
                                         0x78 (size before relaxing)
 .eh_frame      0x000000000002d410       0xe0 build/cooja/mtype468.a(csma.o)
                                         0xf8 (size before relaxing)
 .eh_frame      0x000000000002d4f0      0x1c8 build/cooja/mtype468.a(csma-output.o)
                                        0x1e0 (size before relaxing)
 .eh_frame      0x000000000002d6b8      0x328 build/cooja/mtype468.a(uip-ds6.o)
                                        0x340 (size before relaxing)
 .eh_frame      0x000000000002d9e0       0x80 build/cooja/mtype468.a(uiplib.o)
                                         0x98 (size before relaxing)
 .eh_frame      0x000000000002da60      0x248 build/cooja/mtype468.a(tcpip.o)
                                        0x260 (size before relaxing)
 .eh_frame      0x000000000002dca8      0x240 build/cooja/mtype468.a(uip-ds6-route.o)
                                        0x258 (size before relaxing)
 .eh_frame      0x000000000002dee8      0x1c0 build/cooja/mtype468.a(uip-ds6-nbr.o)
                                        0x1d8 (size before relaxing)
 .eh_frame      0x000000000002e0a8      0x1e8 build/cooja/mtype468.a(uip6.o)
                                        0x200 (size before relaxing)
 .eh_frame      0x000000000002e290       0x80 build/cooja/mtype468.a(uip-nd6.o)
                                         0x98 (size before relaxing)
 .eh_frame      0x000000000002e310       0xc0 build/cooja/mtype468.a(simple-udp.o)
                                         0xd8 (size before relaxing)
 .eh_frame      0x000000000002e3d0      0x2e0 build/cooja/mtype468.a(sicslowpan.o)
                                        0x2f8 (size before relaxing)
 .eh_frame      0x000000000002e6b0      0x1e0 build/cooja/mtype468.a(rpl.o)
                                        0x1f8 (size before relaxing)
 .eh_frame      0x000000000002e890      0x360 build/cooja/mtype468.a(rpl-dag.o)
                                        0x378 (size before relaxing)
 .eh_frame      0x000000000002ebf0       0xa0 build/cooja/mtype468.a(rpl-dag-root.o)
                                         0xb8 (size before relaxing)
 .eh_frame      0x000000000002ec90       0xa0 build/cooja/mtype468.a(watchdog.o)
                                         0xb8 (size before relaxing)
 .eh_frame      0x000000000002ed30       0x80 build/cooja/mtype468.a(int-master.o)
                                         0x98 (size before relaxing)
 .eh_frame      0x000000000002edb0       0xc0 build/cooja/mtype468.a(stimer.o)
                                         0xd8 (size before relaxing)
 .eh_frame      0x000000000002ee70       0xa0 build/cooja/mtype468.a(memb.o)
                                         0xb8 (size before relaxing)
 .eh_frame      0x000000000002ef10       0x20 build/cooja/mtype468.a(assert.o)
                                         0x38 (size before relaxing)
 .eh_frame      0x000000000002ef30       0xa0 build/cooja/mtype468.a(ringbuf.o)
                                         0xb8 (size before relaxing)
 .eh_frame      0x000000000002efd0      0x3e0 build/cooja/mtype468.a(nbr-table.o)
                                        0x3f8 (size before relaxing)
 .eh_frame      0x000000000002f3b0      0x120 build/cooja/mtype468.a(link-stats.o)
                                        0x138 (size before relaxing)
 .eh_frame      0x000000000002f4d0       0x48 build/cooja/mtype468.a(mac-sequence.o)
                                         0x60 (size before relaxing)
 .eh_frame      0x000000000002f518       0x20 build/cooja/mtype468.a(mac.o)
                                         0x38 (size before relaxing)
 .eh_frame      0x000000000002f538       0xa8 build/cooja/mtype468.a(framer-802154.o)
                                         0xc0 (size before relaxing)
 .eh_frame      0x000000000002f5e0      0x1a8 build/cooja/mtype468.a(frame802154.o)
                                        0x1c0 (size before relaxing)
 .eh_frame      0x000000000002f788       0x40 build/cooja/mtype468.a(csma-security.o)
                                         0x58 (size before relaxing)
 .eh_frame      0x000000000002f7c8      0x200 build/cooja/mtype468.a(uipbuf.o)
                                        0x218 (size before relaxing)
 .eh_frame      0x000000000002f9c8      0x148 build/cooja/mtype468.a(uip-icmp6.o)
                                        0x160 (size before relaxing)
 .eh_frame      0x000000000002fb10      0x180 build/cooja/mtype468.a(uip-sr.o)
                                        0x198 (size before relaxing)
 .eh_frame      0x000000000002fc90       0xe0 build/cooja/mtype468.a(uip-packetqueue)
                                         0xf8 (size before relaxing)
 .eh_frame      0x000000000002fd70       0x40 build/cooja/mtype468.a(uip-udp-packet.)
                                         0x58 (size before relaxing)
 .eh_frame      0x000000000002fdb0      0x1c0 build/cooja/mtype468.a(rpl-icmp6.o)
                                        0x1d8 (size before relaxing)
 .eh_frame      0x000000000002ff70      0x2b0 build/cooja/mtype468.a(rpl-neighbor.o)
                                        0x2c8 (size before relaxing)
 .eh_frame      0x0000000000030220      0x3a8 build/cooja/mtype468.a(rpl-timers.o)
                                        0x3c0 (size before relaxing)
 .eh_frame      0x00000000000305c8      0x128 build/cooja/mtype468.a(rpl-ext-header.)
                                        0x140 (size before relaxing)
 .eh_frame      0x00000000000306f0       0x40 build/cooja/mtype468.a(rpl-nbr-policy.)
                                         0x58 (size before relaxing)
 .eh_frame      0x0000000000030730      0x148 build/cooja/mtype468.a(rpl-mrhof.o)
                                        0x160 (size before relaxing)
 .eh_frame      0x0000000000030878        0x4 /usr/lib/gcc/x86_64-linux-gnu/9/crtendS.o
 *(.eh_frame.*)

.gcc_except_table
 *(.gcc_except_table .gcc_except_table.*)

.gnu_extab
 *(.gnu_extab*)

.exception_ranges
 *(.exception_ranges*)
                0x00000000000326f0                . = DATA_SEGMENT_ALIGN (CONSTANT (MAXPAGESIZE), CONSTANT (COMMONPAGESIZE))

.eh_frame
 *(.eh_frame)
 *(.eh_frame.*)

.gnu_extab
 *(.gnu_extab)

.gcc_except_table
 *(.gcc_except_table .gcc_except_table.*)

.exception_ranges
 *(.exception_ranges*)

.tdata
 *(.tdata .tdata.* .gnu.linkonce.td.*)

.tbss
 *(.tbss .tbss.* .gnu.linkonce.tb.*)
 *(.tcommon)

.preinit_array
 *(.preinit_array)

.init_array     0x00000000000326f0        0x8
 *(SORT_BY_INIT_PRIORITY(.init_array.*) SORT_BY_INIT_PRIORITY(.ctors.*))
 *(.init_array EXCLUDE_FILE(*crtend?.o *crtend.o *crtbegin?.o *crtbegin.o) .ctors)
 .init_array    0x00000000000326f0        0x8 /usr/lib/gcc/x86_64-linux-gnu/9/crtbeginS.o

.fini_array     0x00000000000326f8        0x8
 *(SORT_BY_INIT_PRIORITY(.fini_array.*) SORT_BY_INIT_PRIORITY(.dtors.*))
 *(.fini_array EXCLUDE_FILE(*crtend?.o *crtend.o *crtbegin?.o *crtbegin.o) .dtors)
 .fini_array    0x00000000000326f8        0x8 /usr/lib/gcc/x86_64-linux-gnu/9/crtbeginS.o

.ctors
 *crtbegin.o(.ctors)
 *crtbegin?.o(.ctors)
 *(EXCLUDE_FILE(*crtend?.o *crtend.o) .ctors)
 *(SORT_BY_NAME(.ctors.*))
 *(.ctors)

.dtors
 *crtbegin.o(.dtors)
 *crtbegin?.o(.dtors)
 *(EXCLUDE_FILE(*crtend?.o *crtend.o) .dtors)
 *(SORT_BY_NAME(.dtors.*))
 *(.dtors)

.jcr
 *(.jcr)

.data.rel.ro    0x0000000000032700      0x350
 *(.data.rel.ro.local* .gnu.linkonce.d.rel.ro.local.*)
 .data.rel.ro.local
                0x0000000000032700       0x10 build/cooja/mtype468.a(beep.o)
                0x0000000000032700                beep_interface
 .data.rel.ro.local
                0x0000000000032710       0x10 build/cooja/mtype468.a(leds-arch.o)
                0x0000000000032710                leds_interface
 .data.rel.ro.local
                0x0000000000032720       0x10 build/cooja/mtype468.a(moteid.o)
                0x0000000000032720                moteid_interface
 *fill*         0x0000000000032730       0x10 
 .data.rel.ro.local
                0x0000000000032740       0x40 build/cooja/mtype468.a(pir-sensor.o)
                0x0000000000032740                pir_interface
                0x0000000000032760                pir_sensor
 .data.rel.ro.local
                0x0000000000032780       0x10 build/cooja/mtype468.a(rs232.o)
                0x0000000000032780                rs232_interface
 *fill*         0x0000000000032790       0x10 
 .data.rel.ro.local
                0x00000000000327a0       0x40 build/cooja/mtype468.a(vib-sensor.o)
                0x00000000000327a0                vib_interface
                0x00000000000327c0                vib_sensor
 .data.rel.ro.local
                0x00000000000327e0       0x10 build/cooja/mtype468.a(clock.o)
                0x00000000000327e0                clock_interface
 .data.rel.ro.local
                0x00000000000327f0       0x10 build/cooja/mtype468.a(cooja-log.o)
                0x00000000000327f0                simlog_interface
 .data.rel.ro.local
                0x0000000000032800       0x10 build/cooja/mtype468.a(cfs-cooja.o)
                0x0000000000032800                cfs_interface
 *fill*         0x0000000000032810       0x10 
 .data.rel.ro.local
                0x0000000000032820       0x90 build/cooja/mtype468.a(cooja-radio.o)
                0x0000000000032820                radio_interface
                0x0000000000032840                cooja_radio_driver
 .data.rel.ro.local
                0x00000000000328b0       0x10 build/cooja/mtype468.a(eeprom.o)
                0x00000000000328b0                eeprom_interface
 .data.rel.ro.local
                0x00000000000328c0       0x40 build/cooja/mtype468.a(buttons.o)
                0x00000000000328c0                button_interface
                0x00000000000328e0                button_sensor
 .data.rel.ro.local
                0x0000000000032900       0x38 build/cooja/mtype468.a(csma.o)
                0x0000000000032900                csma_driver
 *fill*         0x0000000000032938        0x8 
 .data.rel.ro.local
                0x0000000000032940       0x18 build/cooja/mtype468.a(framer-802154.o)
                0x0000000000032940                framer_802154
 *(.data.rel.ro .data.rel.ro.* .gnu.linkonce.d.rel.ro.*)
 .data.rel.ro   0x0000000000032958        0x0 /usr/lib/gcc/x86_64-linux-gnu/9/../../../x86_64-linux-gnu/crti.o
 *fill*         0x0000000000032958        0x8 
 .data.rel.ro   0x0000000000032960       0x10 Client.o
                0x0000000000032960                autostart_processes
 *fill*         0x0000000000032970       0x10 
 .data.rel.ro   0x0000000000032980       0x20 build/cooja/mtype468.a(sicslowpan.o)
                0x0000000000032980                sicslowpan_driver
 .data.rel.ro   0x00000000000329a0       0xa8 build/cooja/mtype468.a(rpl.o)
                0x00000000000329a0                rpl_lite_driver
 .data.rel.ro   0x0000000000032a48        0x8 build/cooja/mtype468.a(rpl-dag.o)

.dynamic        0x0000000000032a50      0x1c0
 *(.dynamic)
 .dynamic       0x0000000000032a50      0x1c0 /usr/lib/gcc/x86_64-linux-gnu/9/../../../x86_64-linux-gnu/crti.o
                0x0000000000032a50                _DYNAMIC

.got            0x0000000000032c10      0x3d8
 *(.got)
 .got           0x0000000000032c10      0x3d8 /usr/lib/gcc/x86_64-linux-gnu/9/../../../x86_64-linux-gnu/crti.o
 *(.igot)
                0x0000000000032fe8                . = DATA_SEGMENT_RELRO_END (., (SIZEOF (.got.plt) >= 0x18)?0x18:0x0)

.got.plt        0x0000000000033000      0xb20
 *(.got.plt)
 .got.plt       0x0000000000033000      0xb20 /usr/lib/gcc/x86_64-linux-gnu/9/../../../x86_64-linux-gnu/crti.o
                0x0000000000033000                _GLOBAL_OFFSET_TABLE_
 *(.igot.plt)

.data           0x0000000000033b20      0x788
 *(.data .data.* .gnu.linkonce.d.*)
 .data          0x0000000000033b20        0x0 /usr/lib/gcc/x86_64-linux-gnu/9/../../../x86_64-linux-gnu/crti.o
 .data          0x0000000000033b20        0x0 /usr/lib/gcc/x86_64-linux-gnu/9/crtbeginS.o
 .data.rel.local
                0x0000000000033b20        0x8 /usr/lib/gcc/x86_64-linux-gnu/9/crtbeginS.o
                0x0000000000033b20                __dso_handle
 .data          0x0000000000033b28        0x0 Client.o
 *fill*         0x0000000000033b28       0x18 
 .data.rel.local
                0x0000000000033b40       0x20 Client.o
                0x0000000000033b40                wima_client_process
 .data          0x0000000000033b60        0x0 build/cooja/mtype468.o
 .data.rel      0x0000000000033b60       0xa0 build/cooja/mtype468.o
                0x0000000000033b60                simInterfaces
                0x0000000000033be0                sensors
 .data          0x0000000000033c00        0x0 build/cooja/obj/Image.o
 .data          0x0000000000033c00        0x0 build/cooja/obj/ImageDB.o
 .data          0x0000000000033c00        0x0 build/cooja/obj/TransferUDP.o
 .data          0x0000000000033c00        0x0 build/cooja/mtype468.a(simEnvChange.o)
 .data          0x0000000000033c00        0x0 build/cooja/mtype468.a(cooja_mt.o)
 .data          0x0000000000033c00        0x0 build/cooja/mtype468.a(cooja_mtarch.o)
 .data          0x0000000000033c00        0x0 build/cooja/mtype468.a(rtimer-arch.o)
 .data          0x0000000000033c00        0x0 build/cooja/mtype468.a(beep.o)
 .data          0x0000000000033c00        0x0 build/cooja/mtype468.a(leds-arch.o)
 .data          0x0000000000033c00        0x0 build/cooja/mtype468.a(moteid.o)
 .data          0x0000000000033c00        0x0 build/cooja/mtype468.a(pir-sensor.o)
 .data          0x0000000000033c00        0x0 build/cooja/mtype468.a(rs232.o)
 .data          0x0000000000033c00        0x0 build/cooja/mtype468.a(vib-sensor.o)
 .data          0x0000000000033c00        0x0 build/cooja/mtype468.a(clock.o)
 .data          0x0000000000033c00        0x0 build/cooja/mtype468.a(cooja-log.o)
 .data          0x0000000000033c00        0x1 build/cooja/mtype468.a(cfs-cooja.o)
                0x0000000000033c00                imgsimsimul
 *fill*         0x0000000000033c01        0x3 
 .data          0x0000000000033c04       0x1c build/cooja/mtype468.a(cooja-radio.o)
                0x0000000000033c04                simRadioHWOn
                0x0000000000033c08                simSignalStrength
                0x0000000000033c0c                simLastSignalStrength
                0x0000000000033c10                simPower
                0x0000000000033c14                simRadioChannel
                0x0000000000033c18                simLQI
 .data.rel.local
                0x0000000000033c20       0x20 build/cooja/mtype468.a(cooja-radio.o)
                0x0000000000033c20                cooja_radio_process
 .data          0x0000000000033c40        0x0 build/cooja/mtype468.a(eeprom.o)
 .data          0x0000000000033c40        0x0 build/cooja/mtype468.a(random.o)
 .data          0x0000000000033c40        0x0 build/cooja/mtype468.a(sensors.o)
 .data.rel.local
                0x0000000000033c40       0x20 build/cooja/mtype468.a(sensors.o)
                0x0000000000033c40                sensors_process
 .data          0x0000000000033c60        0x0 build/cooja/mtype468.a(leds.o)
 .data          0x0000000000033c60        0x0 build/cooja/mtype468.a(gpio-hal-arch.o)
 .data          0x0000000000033c60        0x1 build/cooja/mtype468.a(buttons.o)
                0x0000000000033c60                simButtonIsActive
 *fill*         0x0000000000033c61       0x1f 
 .data.rel.local
                0x0000000000033c80       0xb0 build/cooja/mtype468.a(buttons.o)
                0x0000000000033d20                button_hal_buttons
 .data          0x0000000000033d30        0x0 build/cooja/mtype468.a(contiki-main.o)
 .data          0x0000000000033d30        0x0 build/cooja/mtype468.a(autostart.o)
 .data          0x0000000000033d30        0x0 build/cooja/mtype468.a(ctimer.o)
 *fill*         0x0000000000033d30       0x10 
 .data.rel.local
                0x0000000000033d40       0x40 build/cooja/mtype468.a(ctimer.o)
                0x0000000000033d60                ctimer_process
 .data          0x0000000000033d80        0x4 build/cooja/mtype468.a(log.o)
                0x0000000000033d80                curr_log_level_main
 *fill*         0x0000000000033d84       0x1c 
 .data.rel      0x0000000000033da0      0x138 build/cooja/mtype468.a(log.o)
                0x0000000000033da0                all_modules
 .data          0x0000000000033ed8        0x0 build/cooja/mtype468.a(energest.o)
 .data          0x0000000000033ed8        0x0 build/cooja/mtype468.a(etimer.o)
 *fill*         0x0000000000033ed8        0x8 
 .data.rel.local
                0x0000000000033ee0       0x20 build/cooja/mtype468.a(etimer.o)
                0x0000000000033ee0                etimer_process
 .data          0x0000000000033f00        0x0 build/cooja/mtype468.a(node-id.o)
 .data          0x0000000000033f00        0x0 build/cooja/mtype468.a(rtimer.o)
 .data          0x0000000000033f00        0x0 build/cooja/mtype468.a(process.o)
 .data          0x0000000000033f00        0x0 build/cooja/mtype468.a(timer.o)
 .data          0x0000000000033f00        0x0 build/cooja/mtype468.a(list.o)
 .data          0x0000000000033f00        0x0 build/cooja/mtype468.a(button-hal.o)
 .data.rel.local
                0x0000000000033f00       0x20 build/cooja/mtype468.a(button-hal.o)
                0x0000000000033f00                button_hal_process
 .data          0x0000000000033f20        0x0 build/cooja/mtype468.a(serial-line.o)
 .data.rel.local
                0x0000000000033f20       0x20 build/cooja/mtype468.a(serial-line.o)
                0x0000000000033f20                serial_line_process
 .data          0x0000000000033f40        0x0 build/cooja/mtype468.a(gpio-hal.o)
 .data.rel.local
                0x0000000000033f40        0x8 build/cooja/mtype468.a(gpio-hal.o)
 .data          0x0000000000033f48        0x0 build/cooja/mtype468.a(queuebuf.o)
 *fill*         0x0000000000033f48        0x8 
 .data.rel.local
                0x0000000000033f50       0x38 build/cooja/mtype468.a(queuebuf.o)
 .data          0x0000000000033f88        0x0 build/cooja/mtype468.a(packetbuf.o)
 .data.rel.local
                0x0000000000033f88        0x8 build/cooja/mtype468.a(packetbuf.o)
 .data          0x0000000000033f90        0x0 build/cooja/mtype468.a(netstack.o)
 .data.rel.local
                0x0000000000033f90        0x8 build/cooja/mtype468.a(netstack.o)
 .data          0x0000000000033f98        0x0 build/cooja/mtype468.a(linkaddr.o)
 .data          0x0000000000033f98        0x0 build/cooja/mtype468.a(csma.o)
 .data          0x0000000000033f98        0x0 build/cooja/mtype468.a(csma-output.o)
 *fill*         0x0000000000033f98        0x8 
 .data.rel.local
                0x0000000000033fa0       0x60 build/cooja/mtype468.a(csma-output.o)
 .data          0x0000000000034000        0x0 build/cooja/mtype468.a(uip-ds6.o)
 .data          0x0000000000034000        0x0 build/cooja/mtype468.a(uiplib.o)
 .data          0x0000000000034000        0x0 build/cooja/mtype468.a(tcpip.o)
 .data.rel.local
                0x0000000000034000       0x20 build/cooja/mtype468.a(tcpip.o)
                0x0000000000034000                tcpip_process
 .data          0x0000000000034020        0x0 build/cooja/mtype468.a(uip-ds6-route.o)
 .data.rel.local
                0x0000000000034020       0x28 build/cooja/mtype468.a(uip-ds6-route.o)
 .data          0x0000000000034048        0x0 build/cooja/mtype468.a(uip-ds6-nbr.o)
 *fill*         0x0000000000034048        0x8 
 .data.rel.local
                0x0000000000034050       0x20 build/cooja/mtype468.a(uip-ds6-nbr.o)
 .data          0x0000000000034070        0x0 build/cooja/mtype468.a(uip6.o)
 .data          0x0000000000034070        0x0 build/cooja/mtype468.a(uip-nd6.o)
 .data.rel.local
                0x0000000000034070       0x18 build/cooja/mtype468.a(uip-nd6.o)
 .data          0x0000000000034088        0x0 build/cooja/mtype468.a(simple-udp.o)
 *fill*         0x0000000000034088       0x18 
 .data.rel.local
                0x00000000000340a0       0x20 build/cooja/mtype468.a(simple-udp.o)
                0x00000000000340a0                simple_udp_process
 .data          0x00000000000340c0        0x0 build/cooja/mtype468.a(sicslowpan.o)
 .data          0x00000000000340c0        0x0 build/cooja/mtype468.a(rpl.o)
 .data          0x00000000000340c0        0x0 build/cooja/mtype468.a(rpl-dag.o)
 .data          0x00000000000340c0        0x0 build/cooja/mtype468.a(rpl-dag-root.o)
 .data          0x00000000000340c0        0x0 build/cooja/mtype468.a(watchdog.o)
 .data          0x00000000000340c0        0x0 build/cooja/mtype468.a(int-master.o)
 .data          0x00000000000340c0        0x0 build/cooja/mtype468.a(stimer.o)
 .data          0x00000000000340c0        0x0 build/cooja/mtype468.a(memb.o)
 .data          0x00000000000340c0        0x0 build/cooja/mtype468.a(assert.o)
 .data          0x00000000000340c0        0x0 build/cooja/mtype468.a(ringbuf.o)
 .data          0x00000000000340c0        0x0 build/cooja/mtype468.a(nbr-table.o)
 .data.rel.local
                0x00000000000340c0       0x20 build/cooja/mtype468.a(nbr-table.o)
 .data          0x00000000000340e0        0x0 build/cooja/mtype468.a(link-stats.o)
 .data.rel.local
                0x00000000000340e0       0x20 build/cooja/mtype468.a(link-stats.o)
 .data          0x0000000000034100        0x0 build/cooja/mtype468.a(mac-sequence.o)
 .data          0x0000000000034100        0x0 build/cooja/mtype468.a(mac.o)
 .data          0x0000000000034100        0x0 build/cooja/mtype468.a(framer-802154.o)
 .data          0x0000000000034100        0x2 build/cooja/mtype468.a(frame802154.o)
 .data          0x0000000000034102        0x0 build/cooja/mtype468.a(csma-security.o)
 .data          0x0000000000034102        0x0 build/cooja/mtype468.a(uipbuf.o)
 .data          0x0000000000034102        0x0 build/cooja/mtype468.a(uip-icmp6.o)
 *fill*         0x0000000000034102        0xe 
 .data.rel.local
                0x0000000000034110       0x48 build/cooja/mtype468.a(uip-icmp6.o)
 .data          0x0000000000034158        0x0 build/cooja/mtype468.a(uip-sr.o)
 *fill*         0x0000000000034158        0x8 
 .data.rel.local
                0x0000000000034160       0x28 build/cooja/mtype468.a(uip-sr.o)
 .data          0x0000000000034188        0x0 build/cooja/mtype468.a(uip-packetqueue)
 *fill*         0x0000000000034188        0x8 
 .data.rel.local
                0x0000000000034190       0x18 build/cooja/mtype468.a(uip-packetqueue)
 .data          0x00000000000341a8        0x0 build/cooja/mtype468.a(uip-udp-packet.)
 .data          0x00000000000341a8        0x0 build/cooja/mtype468.a(rpl-icmp6.o)
 *fill*         0x00000000000341a8        0x8 
 .data.rel.local
                0x00000000000341b0       0x78 build/cooja/mtype468.a(rpl-icmp6.o)
 .data          0x0000000000034228        0x0 build/cooja/mtype468.a(rpl-neighbor.o)
 *fill*         0x0000000000034228        0x8 
 .data.rel.local
                0x0000000000034230       0x20 build/cooja/mtype468.a(rpl-neighbor.o)
                0x0000000000034248                rpl_neighbors
 .data          0x0000000000034250        0x0 build/cooja/mtype468.a(rpl-timers.o)
 .data          0x0000000000034250        0x0 build/cooja/mtype468.a(rpl-ext-header.)
 .data          0x0000000000034250        0x0 build/cooja/mtype468.a(rpl-nbr-policy.)
 .data          0x0000000000034250        0x0 build/cooja/mtype468.a(rpl-mrhof.o)
 *fill*         0x0000000000034250       0x10 
 .data.rel.local
                0x0000000000034260       0x48 build/cooja/mtype468.a(rpl-mrhof.o)
                0x0000000000034260                rpl_mrhof
 .data          0x00000000000342a8        0x0 /usr/lib/gcc/x86_64-linux-gnu/9/crtendS.o
 .data          0x00000000000342a8        0x0 /usr/lib/gcc/x86_64-linux-gnu/9/../../../x86_64-linux-gnu/crtn.o

.tm_clone_table
                0x00000000000342a8        0x0
 .tm_clone_table
                0x00000000000342a8        0x0 /usr/lib/gcc/x86_64-linux-gnu/9/crtbeginS.o
 .tm_clone_table
                0x00000000000342a8        0x0 /usr/lib/gcc/x86_64-linux-gnu/9/crtendS.o

.data1
 *(.data1)
                [!provide]                        PROVIDE (_edata = .)
                [!provide]                        PROVIDE (edata = .)
                0x00000000000342a8                . = .
                [!provide]                        PROVIDE (__bss_start = .)

.bss            0x00000000000342c0   0x5575e0
 *(.dynbss)
 .dynbss        0x00000000000342c0        0x0 /usr/lib/gcc/x86_64-linux-gnu/9/../../../x86_64-linux-gnu/crti.o
 *(.bss .bss.* .gnu.linkonce.b.*)
 .bss           0x00000000000342c0        0x0 /usr/lib/gcc/x86_64-linux-gnu/9/../../../x86_64-linux-gnu/crti.o
 .bss           0x00000000000342c0        0x1 /usr/lib/gcc/x86_64-linux-gnu/9/crtbeginS.o
 *fill*         0x00000000000342c1       0x1f 
 .bss           0x00000000000342e0       0x20 Client.o
 .bss           0x0000000000034300     0x4070 build/cooja/mtype468.o
 .bss           0x0000000000038370        0x0 build/cooja/obj/Image.o
 .bss           0x0000000000038370        0x0 build/cooja/obj/ImageDB.o
 .bss           0x0000000000038370        0x0 build/cooja/obj/TransferUDP.o
 .bss           0x0000000000038370        0x1 build/cooja/mtype468.a(simEnvChange.o)
                0x0000000000038370                simDontFallAsleep
 *fill*         0x0000000000038371        0x7 
 .bss           0x0000000000038378        0x8 build/cooja/mtype468.a(cooja_mt.o)
 .bss           0x0000000000038380        0x8 build/cooja/mtype468.a(cooja_mtarch.o)
 .bss           0x0000000000038388        0x0 build/cooja/mtype468.a(rtimer-arch.o)
 .bss           0x0000000000038388        0x0 build/cooja/mtype468.a(beep.o)
 .bss           0x0000000000038388        0x1 build/cooja/mtype468.a(leds-arch.o)
                0x0000000000038388                simLedsValue
 .bss           0x0000000000038389        0x0 build/cooja/mtype468.a(moteid.o)
 .bss           0x0000000000038389        0x1 build/cooja/mtype468.a(pir-sensor.o)
                0x0000000000038389                simPirValue
 *fill*         0x000000000003838a        0x6 
 .bss           0x0000000000038390        0x8 build/cooja/mtype468.a(rs232.o)
 .bss           0x0000000000038398        0x1 build/cooja/mtype468.a(vib-sensor.o)
                0x0000000000038398                simVibValue
 .bss           0x0000000000038399        0x0 build/cooja/mtype468.a(clock.o)
 *fill*         0x0000000000038399        0x7 
 .bss           0x00000000000383a0     0x2020 build/cooja/mtype468.a(cooja-log.o)
 .bss           0x000000000003a3c0    0x7a180 build/cooja/mtype468.a(cfs-cooja.o)
                0x000000000003a3c0                file_size_0
                0x000000000003a3c4                file_size_1
                0x000000000003a3c8                file_size_2
                0x000000000003a3cc                file_size_3
                0x000000000003a3d0                file_size_4
                0x000000000003a3d4                file_size_5
                0x000000000003a3d8                file_size_6
                0x000000000003a3dc                file_size_7
                0x000000000003a3e0                file_size_8
                0x000000000003a3e4                file_size_9
                0x000000000003a3e8                simul_files
                0x000000000003a400                simCFSData
                0x00000000000b4520                simCFSSize
                0x00000000000b4524                simCFSChanged
                0x00000000000b4528                simCFSRead
                0x00000000000b452c                simCFSWritten
 .bss           0x00000000000b4540       0x2c build/cooja/mtype468.a(cooja-radio.o)
                0x00000000000b4540                simReceiving
                0x00000000000b4544                simInSize
                0x00000000000b4548                simLastPacketTimestamp
                0x00000000000b4550                simOutSize
 .bss           0x00000000000b456c        0xc build/cooja/mtype468.a(eeprom.o)
                0x00000000000b456c                simEEPROMChanged
                0x00000000000b4570                simEEPROMRead
                0x00000000000b4574                simEEPROMWritten
 .bss           0x00000000000b4578        0x0 build/cooja/mtype468.a(random.o)
 .bss           0x00000000000b4578        0xc build/cooja/mtype468.a(sensors.o)
 .bss           0x00000000000b4584        0x0 build/cooja/mtype468.a(leds.o)
 *fill*         0x00000000000b4584       0x1c 
 .bss           0x00000000000b45a0       0x40 build/cooja/mtype468.a(gpio-hal-arch.o)
 .bss           0x00000000000b45e0        0x0 build/cooja/mtype468.a(buttons.o)
 .bss           0x00000000000b45e0        0x0 build/cooja/mtype468.a(contiki-main.o)
 .bss           0x00000000000b45e0        0x0 build/cooja/mtype468.a(autostart.o)
 .bss           0x00000000000b45e0        0x9 build/cooja/mtype468.a(ctimer.o)
 *fill*         0x00000000000b45e9        0x3 
 .bss           0x00000000000b45ec       0x2c build/cooja/mtype468.a(log.o)
                0x00000000000b45ec                curr_log_level_rpl
                0x00000000000b45f0                curr_log_level_tcpip
                0x00000000000b45f4                curr_log_level_ipv6
                0x00000000000b45f8                curr_log_level_6lowpan
                0x00000000000b45fc                curr_log_level_nullnet
                0x00000000000b4600                curr_log_level_mac
                0x00000000000b4604                curr_log_level_framer
                0x00000000000b4608                curr_log_level_6top
                0x00000000000b460c                curr_log_level_coap
                0x00000000000b4610                curr_log_level_snmp
                0x00000000000b4614                curr_log_level_lwm2m
 .bss           0x00000000000b4618        0x0 build/cooja/mtype468.a(energest.o)
 .bss           0x00000000000b4618       0x10 build/cooja/mtype468.a(etimer.o)
 .bss           0x00000000000b4628        0x2 build/cooja/mtype468.a(node-id.o)
                0x00000000000b4628                node_id
 *fill*         0x00000000000b462a        0x6 
 .bss           0x00000000000b4630        0x8 build/cooja/mtype468.a(rtimer.o)
 *fill*         0x00000000000b4638        0x8 
 .bss           0x00000000000b4640      0x321 build/cooja/mtype468.a(process.o)
                0x00000000000b4640                process_list
                0x00000000000b4648                process_current
 .bss           0x00000000000b4961        0x0 build/cooja/mtype468.a(timer.o)
 .bss           0x00000000000b4961        0x0 build/cooja/mtype468.a(list.o)
 *fill*         0x00000000000b4961        0xf 
 .bss           0x00000000000b4970       0x28 build/cooja/mtype468.a(button-hal.o)
 *fill*         0x00000000000b4998        0x8 
 .bss           0x00000000000b49a0      0x140 build/cooja/mtype468.a(serial-line.o)
 .bss           0x00000000000b4ae0        0x8 build/cooja/mtype468.a(gpio-hal.o)
 *fill*         0x00000000000b4ae8       0x18 
 .bss           0x00000000000b4b00     0x2d80 build/cooja/mtype468.a(queuebuf.o)
 .bss           0x00000000000b7880       0xa0 build/cooja/mtype468.a(packetbuf.o)
 .bss           0x00000000000b7920        0x8 build/cooja/mtype468.a(netstack.o)
 .bss           0x00000000000b7928        0x0 build/cooja/mtype468.a(linkaddr.o)
 .bss           0x00000000000b7928        0x0 build/cooja/mtype468.a(csma.o)
 *fill*         0x00000000000b7928       0x18 
 .bss           0x00000000000b7940      0xd8a build/cooja/mtype468.a(csma-output.o)
 *fill*         0x00000000000b86ca        0x6 
 .bss           0x00000000000b86d0       0x40 build/cooja/mtype468.a(uip-ds6.o)
 .bss           0x00000000000b8710        0x0 build/cooja/mtype468.a(uiplib.o)
 *fill*         0x00000000000b8710       0x10 
 .bss           0x00000000000b8720       0x20 build/cooja/mtype468.a(tcpip.o)
 .bss           0x00000000000b8740       0x80 build/cooja/mtype468.a(uip-ds6-route.o)
 .bss           0x00000000000b87c0     0x2580 build/cooja/mtype468.a(uip-ds6-nbr.o)
 .bss           0x00000000000bad40        0x8 build/cooja/mtype468.a(uip6.o)
                0x00000000000bad40                uip_ext_bitmap
                0x00000000000bad42                uip_ext_len
                0x00000000000bad44                uip_last_proto
 .bss           0x00000000000bad48       0x20 build/cooja/mtype468.a(uip-nd6.o)
 *fill*         0x00000000000bad68       0x18 
 .bss           0x00000000000bad80      0x520 build/cooja/mtype468.a(simple-udp.o)
 .bss           0x00000000000bb2a0      0x738 build/cooja/mtype468.a(sicslowpan.o)
 .bss           0x00000000000bb9d8        0x1 build/cooja/mtype468.a(rpl.o)
 .bss           0x00000000000bb9d9        0x0 build/cooja/mtype468.a(rpl-dag.o)
 *fill*         0x00000000000bb9d9        0x7 
 .bss           0x00000000000bb9e0       0x11 build/cooja/mtype468.a(rpl-dag-root.o)
 .bss           0x00000000000bb9f1        0x0 build/cooja/mtype468.a(watchdog.o)
 *fill*         0x00000000000bb9f1        0x3 
 .bss           0x00000000000bb9f4        0x4 build/cooja/mtype468.a(int-master.o)
 .bss           0x00000000000bb9f8        0x0 build/cooja/mtype468.a(stimer.o)
 .bss           0x00000000000bb9f8        0x0 build/cooja/mtype468.a(memb.o)
 .bss           0x00000000000bb9f8        0x0 build/cooja/mtype468.a(assert.o)
 .bss           0x00000000000bb9f8        0x0 build/cooja/mtype468.a(ringbuf.o)
 *fill*         0x00000000000bb9f8        0x8 
 .bss           0x00000000000bba00     0x16e8 build/cooja/mtype468.a(nbr-table.o)
 *fill*         0x00000000000bd0e8       0x18 
 .bss           0x00000000000bd100     0x12c0 build/cooja/mtype468.a(link-stats.o)
 .bss           0x00000000000be3c0      0x180 build/cooja/mtype468.a(mac-sequence.o)
 .bss           0x00000000000be540        0x0 build/cooja/mtype468.a(mac.o)
 .bss           0x00000000000be540        0x2 build/cooja/mtype468.a(framer-802154.o)
 .bss           0x00000000000be542        0x0 build/cooja/mtype468.a(frame802154.o)
 .bss           0x00000000000be542        0x0 build/cooja/mtype468.a(csma-security.o)
 *fill*         0x00000000000be542        0xe 
 .bss           0x00000000000be550       0x20 build/cooja/mtype468.a(uipbuf.o)
 .bss           0x00000000000be570       0x20 build/cooja/mtype468.a(uip-icmp6.o)
 *fill*         0x00000000000be590       0x10 
 .bss           0x00000000000be5a0     0x3040 build/cooja/mtype468.a(uip-sr.o)
 .bss           0x00000000000c15e0      0xad0 build/cooja/mtype468.a(uip-packetqueue)
 .bss           0x00000000000c20b0        0x0 build/cooja/mtype468.a(uip-udp-packet.)
 .bss           0x00000000000c20b0        0x0 build/cooja/mtype468.a(rpl-icmp6.o)
 *fill*         0x00000000000c20b0       0x10 
 .bss           0x00000000000c20c0     0x12c0 build/cooja/mtype468.a(rpl-neighbor.o)
 .bss           0x00000000000c3380       0x80 build/cooja/mtype468.a(rpl-timers.o)
 .bss           0x00000000000c3400        0x0 build/cooja/mtype468.a(rpl-ext-header.)
 .bss           0x00000000000c3400        0x0 build/cooja/mtype468.a(rpl-nbr-policy.)
 .bss           0x00000000000c3400        0x0 build/cooja/mtype468.a(rpl-mrhof.o)
 .bss           0x00000000000c3400        0x0 /usr/lib/gcc/x86_64-linux-gnu/9/crtendS.o
 .bss           0x00000000000c3400        0x0 /usr/lib/gcc/x86_64-linux-gnu/9/../../../x86_64-linux-gnu/crtn.o
 *(COMMON)
 COMMON         0x00000000000c3400        0xc build/cooja/mtype468.o
                0x00000000000c3400                referenceVar
                0x00000000000c3408                sensors_flags
 *fill*         0x00000000000c340c        0x4 
 COMMON         0x00000000000c3410       0x10 build/cooja/mtype468.a(simEnvChange.o)
                0x00000000000c3410                simEtimerPending
                0x00000000000c3414                simProcessRunValue
                0x00000000000c3418                simEtimerNextExpirationTime
 COMMON         0x00000000000c3420       0x18 build/cooja/mtype468.a(rtimer-arch.o)
                0x00000000000c3420                simRtimerPending
                0x00000000000c3428                simRtimerCurrentTicks
                0x00000000000c3430                simRtimerNextExpirationTime
 COMMON         0x00000000000c3438        0x1 build/cooja/mtype468.a(beep.o)
                0x00000000000c3438                simBeeped
 *fill*         0x00000000000c3439        0x3 
 COMMON         0x00000000000c343c        0xc build/cooja/mtype468.a(moteid.o)
                0x00000000000c343c                simRandomSeed
                0x00000000000c3440                simMoteIDChanged
                0x00000000000c3444                simMoteID
 COMMON         0x00000000000c3448        0x2 build/cooja/mtype468.a(pir-sensor.o)
                0x00000000000c3448                simPirIsActive
                0x00000000000c3449                simPirChanged
 *fill*         0x00000000000c344a       0x16 
 COMMON         0x00000000000c3460      0x820 build/cooja/mtype468.a(rs232.o)
                0x00000000000c3460                simSerialReceivingFlag
                0x00000000000c3464                simSerialReceivingLength
                0x00000000000c3480                simSerialReceivingData
 COMMON         0x00000000000c3c80        0x2 build/cooja/mtype468.a(vib-sensor.o)
                0x00000000000c3c80                simVibChanged
                0x00000000000c3c81                simVibIsActive
 *fill*         0x00000000000c3c82        0x6 
 COMMON         0x00000000000c3c88        0x8 build/cooja/mtype468.a(clock.o)
                0x00000000000c3c88                simCurrentTime
 *fill*         0x00000000000c3c90       0x10 
 COMMON         0x00000000000c3ca0     0x2020 build/cooja/mtype468.a(cooja-log.o)
                0x00000000000c3ca0                simLoggedLength
                0x00000000000c3ca4                simLoggedFlag
                0x00000000000c3cc0                simLoggedData
 COMMON         0x00000000000c5cc0   0x4c4b40 build/cooja/mtype468.a(cfs-cooja.o)
                0x00000000000c5cc0                file_img_6
                0x000000000013fde0                file_img_2
                0x00000000001b9f00                file_img_4
                0x0000000000234020                file_img_8
                0x00000000002ae140                file_img_0
                0x0000000000328260                file_img_3
                0x00000000003a2380                file_img_7
                0x000000000041c4a0                file_img_5
                0x00000000004965c0                file_img_9
                0x00000000005106e0                file_img_1
 COMMON         0x000000000058a800       0xfd build/cooja/mtype468.a(cooja-radio.o)
                0x000000000058a800                simOutDataBuffer
                0x000000000058a880                simInDataBuffer
 *fill*         0x000000000058a8fd        0x3 
 COMMON         0x000000000058a900      0x400 build/cooja/mtype468.a(eeprom.o)
                0x000000000058a900                simEEPROMData
 COMMON         0x000000000058ad00        0x1 build/cooja/mtype468.a(sensors.o)
                0x000000000058ad00                sensors_event
 COMMON         0x000000000058ad01        0x2 build/cooja/mtype468.a(buttons.o)
                0x000000000058ad01                simButtonIsDown
                0x000000000058ad02                simButtonChanged
 COMMON         0x000000000058ad03        0x3 build/cooja/mtype468.a(button-hal.o)
                0x000000000058ad03                button_hal_periodic_event
                0x000000000058ad04                button_hal_press_event
                0x000000000058ad05                button_hal_release_event
 COMMON         0x000000000058ad06        0x1 build/cooja/mtype468.a(serial-line.o)
                0x000000000058ad06                serial_line_event_message
 *fill*         0x000000000058ad07        0x9 
 COMMON         0x000000000058ad10       0x30 build/cooja/mtype468.a(packetbuf.o)
                0x000000000058ad10                packetbuf_attrs
                0x000000000058ad30                packetbuf_addrs
 COMMON         0x000000000058ad40        0x8 build/cooja/mtype468.a(linkaddr.o)
                0x000000000058ad40                linkaddr_node_addr
 *fill*         0x000000000058ad48       0x18 
 COMMON         0x000000000058ad60      0x1f1 build/cooja/mtype468.a(uip-ds6.o)
                0x000000000058ad60                uip_ds6_prefix_list
                0x000000000058adc0                uip_ds6_timer_periodic
                0x000000000058ade0                uip_ds6_netif_addr_list_offset
                0x000000000058ae00                uip_ds6_if
                0x000000000058af40                uip_ds6_timer_ra
                0x000000000058af50                uip_ds6_addr_size
 COMMON         0x000000000058af51        0x1 build/cooja/mtype468.a(tcpip.o)
                0x000000000058af51                tcpip_event
 *fill*         0x000000000058af52        0xe 
 COMMON         0x000000000058af60      0x690 build/cooja/mtype468.a(uip6.o)
                0x000000000058af60                uip_slen
                0x000000000058af68                uip_lladdr
                0x000000000058af70                uip_appdata
                0x000000000058af78                uip_flags
                0x000000000058af80                uip_aligned_buf
                0x000000000058b480                uip_len
                0x000000000058b488                uip_sappdata
                0x000000000058b4a0                uip_udp_conns
                0x000000000058b5e0                uip_udp_conn
                0x000000000058b5e8                uip_conn
 COMMON         0x000000000058b5f0       0x10 build/cooja/mtype468.a(rpl.o)
                0x000000000058b5f0                rpl_multicast_addr
 COMMON         0x000000000058b600      0x260 build/cooja/mtype468.a(rpl-dag.o)
                0x000000000058b600                curr_instance
 COMMON         0x000000000058b860       0x40 build/cooja/mtype468.a(link-stats.o)
                0x000000000058b860                periodic_timer
                0x000000000058b8a0                . = ALIGN ((. != 0x0)?0x8:0x1)

.lbss
 *(.dynlbss)
 *(.lbss .lbss.* .gnu.linkonce.lb.*)
 *(LARGE_COMMON)
                0x000000000058b8a0                . = ALIGN (0x8)
                0x000000000058b8a0                . = SEGMENT_START ("ldata-segment", .)

.lrodata
 *(.lrodata .lrodata.* .gnu.linkonce.lr.*)

.ldata          0x000000000058d8a0        0x0
 *(.ldata .ldata.* .gnu.linkonce.l.*)
                0x000000000058d8a0                . = ALIGN ((. != 0x0)?0x8:0x1)
                0x000000000058d8a0                . = ALIGN (0x8)
                [!provide]                        PROVIDE (_end = .)
                [!provide]                        PROVIDE (end = .)
                0x000000000058d8a0                . = DATA_SEGMENT_END (.)

.stab
 *(.stab)

.stabstr
 *(.stabstr)

.stab.excl
 *(.stab.excl)

.stab.exclstr
 *(.stab.exclstr)

.stab.index
 *(.stab.index)

.stab.indexstr
 *(.stab.indexstr)

.comment        0x0000000000000000       0x2b
 *(.comment)
 .comment       0x0000000000000000       0x2b /usr/lib/gcc/x86_64-linux-gnu/9/crtbeginS.o
                                         0x2c (size before relaxing)
 .comment       0x000000000000002b       0x2c Client.o
 .comment       0x000000000000002b       0x2c build/cooja/mtype468.o
 .comment       0x000000000000002b       0x2c build/cooja/obj/Image.o
 .comment       0x000000000000002b       0x2c build/cooja/obj/ImageDB.o
 .comment       0x000000000000002b       0x2c build/cooja/obj/TransferUDP.o
 .comment       0x000000000000002b       0x2c build/cooja/mtype468.a(simEnvChange.o)
 .comment       0x000000000000002b       0x2c build/cooja/mtype468.a(cooja_mt.o)
 .comment       0x000000000000002b       0x2c build/cooja/mtype468.a(cooja_mtarch.o)
 .comment       0x000000000000002b       0x2c build/cooja/mtype468.a(rtimer-arch.o)
 .comment       0x000000000000002b       0x2c build/cooja/mtype468.a(beep.o)
 .comment       0x000000000000002b       0x2c build/cooja/mtype468.a(leds-arch.o)
 .comment       0x000000000000002b       0x2c build/cooja/mtype468.a(moteid.o)
 .comment       0x000000000000002b       0x2c build/cooja/mtype468.a(pir-sensor.o)
 .comment       0x000000000000002b       0x2c build/cooja/mtype468.a(rs232.o)
 .comment       0x000000000000002b       0x2c build/cooja/mtype468.a(vib-sensor.o)
 .comment       0x000000000000002b       0x2c build/cooja/mtype468.a(clock.o)
 .comment       0x000000000000002b       0x2c build/cooja/mtype468.a(cooja-log.o)
 .comment       0x000000000000002b       0x2c build/cooja/mtype468.a(cfs-cooja.o)
 .comment       0x000000000000002b       0x2c build/cooja/mtype468.a(cooja-radio.o)
 .comment       0x000000000000002b       0x2c build/cooja/mtype468.a(eeprom.o)
 .comment       0x000000000000002b       0x2c build/cooja/mtype468.a(random.o)
 .comment       0x000000000000002b       0x2c build/cooja/mtype468.a(sensors.o)
 .comment       0x000000000000002b       0x2c build/cooja/mtype468.a(leds.o)
 .comment       0x000000000000002b       0x2c build/cooja/mtype468.a(gpio-hal-arch.o)
 .comment       0x000000000000002b       0x2c build/cooja/mtype468.a(buttons.o)
 .comment       0x000000000000002b       0x2c build/cooja/mtype468.a(contiki-main.o)
 .comment       0x000000000000002b       0x2c build/cooja/mtype468.a(autostart.o)
 .comment       0x000000000000002b       0x2c build/cooja/mtype468.a(ctimer.o)
 .comment       0x000000000000002b       0x2c build/cooja/mtype468.a(log.o)
 .comment       0x000000000000002b       0x2c build/cooja/mtype468.a(energest.o)
 .comment       0x000000000000002b       0x2c build/cooja/mtype468.a(etimer.o)
 .comment       0x000000000000002b       0x2c build/cooja/mtype468.a(node-id.o)
 .comment       0x000000000000002b       0x2c build/cooja/mtype468.a(rtimer.o)
 .comment       0x000000000000002b       0x2c build/cooja/mtype468.a(process.o)
 .comment       0x000000000000002b       0x2c build/cooja/mtype468.a(timer.o)
 .comment       0x000000000000002b       0x2c build/cooja/mtype468.a(list.o)
 .comment       0x000000000000002b       0x2c build/cooja/mtype468.a(button-hal.o)
 .comment       0x000000000000002b       0x2c build/cooja/mtype468.a(serial-line.o)
 .comment       0x000000000000002b       0x2c build/cooja/mtype468.a(gpio-hal.o)
 .comment       0x000000000000002b       0x2c build/cooja/mtype468.a(queuebuf.o)
 .comment       0x000000000000002b       0x2c build/cooja/mtype468.a(packetbuf.o)
 .comment       0x000000000000002b       0x2c build/cooja/mtype468.a(netstack.o)
 .comment       0x000000000000002b       0x2c build/cooja/mtype468.a(linkaddr.o)
 .comment       0x000000000000002b       0x2c build/cooja/mtype468.a(csma.o)
 .comment       0x000000000000002b       0x2c build/cooja/mtype468.a(csma-output.o)
 .comment       0x000000000000002b       0x2c build/cooja/mtype468.a(uip-ds6.o)
 .comment       0x000000000000002b       0x2c build/cooja/mtype468.a(uiplib.o)
 .comment       0x000000000000002b       0x2c build/cooja/mtype468.a(tcpip.o)
 .comment       0x000000000000002b       0x2c build/cooja/mtype468.a(uip-ds6-route.o)
 .comment       0x000000000000002b       0x2c build/cooja/mtype468.a(uip-ds6-nbr.o)
 .comment       0x000000000000002b       0x2c build/cooja/mtype468.a(uip6.o)
 .comment       0x000000000000002b       0x2c build/cooja/mtype468.a(uip-nd6.o)
 .comment       0x000000000000002b       0x2c build/cooja/mtype468.a(simple-udp.o)
 .comment       0x000000000000002b       0x2c build/cooja/mtype468.a(sicslowpan.o)
 .comment       0x000000000000002b       0x2c build/cooja/mtype468.a(rpl.o)
 .comment       0x000000000000002b       0x2c build/cooja/mtype468.a(rpl-dag.o)
 .comment       0x000000000000002b       0x2c build/cooja/mtype468.a(rpl-dag-root.o)
 .comment       0x000000000000002b       0x2c build/cooja/mtype468.a(watchdog.o)
 .comment       0x000000000000002b       0x2c build/cooja/mtype468.a(int-master.o)
 .comment       0x000000000000002b       0x2c build/cooja/mtype468.a(stimer.o)
 .comment       0x000000000000002b       0x2c build/cooja/mtype468.a(memb.o)
 .comment       0x000000000000002b       0x2c build/cooja/mtype468.a(assert.o)
 .comment       0x000000000000002b       0x2c build/cooja/mtype468.a(ringbuf.o)
 .comment       0x000000000000002b       0x2c build/cooja/mtype468.a(nbr-table.o)
 .comment       0x000000000000002b       0x2c build/cooja/mtype468.a(link-stats.o)
 .comment       0x000000000000002b       0x2c build/cooja/mtype468.a(mac-sequence.o)
 .comment       0x000000000000002b       0x2c build/cooja/mtype468.a(mac.o)
 .comment       0x000000000000002b       0x2c build/cooja/mtype468.a(framer-802154.o)
 .comment       0x000000000000002b       0x2c build/cooja/mtype468.a(frame802154.o)
 .comment       0x000000000000002b       0x2c build/cooja/mtype468.a(csma-security.o)
 .comment       0x000000000000002b       0x2c build/cooja/mtype468.a(uipbuf.o)
 .comment       0x000000000000002b       0x2c build/cooja/mtype468.a(uip-icmp6.o)
 .comment       0x000000000000002b       0x2c build/cooja/mtype468.a(uip-sr.o)
 .comment       0x000000000000002b       0x2c build/cooja/mtype468.a(uip-packetqueue)
 .comment       0x000000000000002b       0x2c build/cooja/mtype468.a(uip-udp-packet.)
 .comment       0x000000000000002b       0x2c build/cooja/mtype468.a(rpl-icmp6.o)
 .comment       0x000000000000002b       0x2c build/cooja/mtype468.a(rpl-neighbor.o)
 .comment       0x000000000000002b       0x2c build/cooja/mtype468.a(rpl-timers.o)
 .comment       0x000000000000002b       0x2c build/cooja/mtype468.a(rpl-ext-header.)
 .comment       0x000000000000002b       0x2c build/cooja/mtype468.a(rpl-nbr-policy.)
 .comment       0x000000000000002b       0x2c build/cooja/mtype468.a(rpl-mrhof.o)
 .comment       0x000000000000002b       0x2c /usr/lib/gcc/x86_64-linux-gnu/9/crtendS.o

.gnu.build.attributes
 *(.gnu.build.attributes .gnu.build.attributes.*)

.debug
 *(.debug)

.line
 *(.line)

.debug_srcinfo
 *(.debug_srcinfo)

.debug_sfnames
 *(.debug_sfnames)

.debug_aranges  0x0000000000000000      0xf30
 *(.debug_aranges)
 .debug_aranges
                0x0000000000000000       0x30 Client.o
 .debug_aranges
                0x0000000000000030       0x30 build/cooja/mtype468.o
 .debug_aranges
                0x0000000000000060       0x30 build/cooja/obj/Image.o
 .debug_aranges
                0x0000000000000090       0x30 build/cooja/obj/ImageDB.o
 .debug_aranges
                0x00000000000000c0       0x30 build/cooja/obj/TransferUDP.o
 .debug_aranges
                0x00000000000000f0       0x30 build/cooja/mtype468.a(simEnvChange.o)
 .debug_aranges
                0x0000000000000120       0x30 build/cooja/mtype468.a(cooja_mt.o)
 .debug_aranges
                0x0000000000000150       0x30 build/cooja/mtype468.a(cooja_mtarch.o)
 .debug_aranges
                0x0000000000000180       0x30 build/cooja/mtype468.a(rtimer-arch.o)
 .debug_aranges
                0x00000000000001b0       0x30 build/cooja/mtype468.a(beep.o)
 .debug_aranges
                0x00000000000001e0       0x30 build/cooja/mtype468.a(leds-arch.o)
 .debug_aranges
                0x0000000000000210       0x30 build/cooja/mtype468.a(moteid.o)
 .debug_aranges
                0x0000000000000240       0x30 build/cooja/mtype468.a(pir-sensor.o)
 .debug_aranges
                0x0000000000000270       0x30 build/cooja/mtype468.a(rs232.o)
 .debug_aranges
                0x00000000000002a0       0x30 build/cooja/mtype468.a(vib-sensor.o)
 .debug_aranges
                0x00000000000002d0       0x30 build/cooja/mtype468.a(clock.o)
 .debug_aranges
                0x0000000000000300       0x30 build/cooja/mtype468.a(cooja-log.o)
 .debug_aranges
                0x0000000000000330       0x30 build/cooja/mtype468.a(cfs-cooja.o)
 .debug_aranges
                0x0000000000000360       0x30 build/cooja/mtype468.a(cooja-radio.o)
 .debug_aranges
                0x0000000000000390       0x30 build/cooja/mtype468.a(eeprom.o)
 .debug_aranges
                0x00000000000003c0       0x30 build/cooja/mtype468.a(random.o)
 .debug_aranges
                0x00000000000003f0       0x30 build/cooja/mtype468.a(sensors.o)
 .debug_aranges
                0x0000000000000420       0x30 build/cooja/mtype468.a(leds.o)
 .debug_aranges
                0x0000000000000450       0x30 build/cooja/mtype468.a(gpio-hal-arch.o)
 .debug_aranges
                0x0000000000000480       0x30 build/cooja/mtype468.a(buttons.o)
 .debug_aranges
                0x00000000000004b0       0x30 build/cooja/mtype468.a(contiki-main.o)
 .debug_aranges
                0x00000000000004e0       0x30 build/cooja/mtype468.a(autostart.o)
 .debug_aranges
                0x0000000000000510       0x30 build/cooja/mtype468.a(ctimer.o)
 .debug_aranges
                0x0000000000000540       0x30 build/cooja/mtype468.a(log.o)
 .debug_aranges
                0x0000000000000570       0x30 build/cooja/mtype468.a(energest.o)
 .debug_aranges
                0x00000000000005a0       0x30 build/cooja/mtype468.a(etimer.o)
 .debug_aranges
                0x00000000000005d0       0x30 build/cooja/mtype468.a(node-id.o)
 .debug_aranges
                0x0000000000000600       0x30 build/cooja/mtype468.a(rtimer.o)
 .debug_aranges
                0x0000000000000630       0x30 build/cooja/mtype468.a(process.o)
 .debug_aranges
                0x0000000000000660       0x30 build/cooja/mtype468.a(timer.o)
 .debug_aranges
                0x0000000000000690       0x30 build/cooja/mtype468.a(list.o)
 .debug_aranges
                0x00000000000006c0       0x30 build/cooja/mtype468.a(button-hal.o)
 .debug_aranges
                0x00000000000006f0       0x30 build/cooja/mtype468.a(serial-line.o)
 .debug_aranges
                0x0000000000000720       0x30 build/cooja/mtype468.a(gpio-hal.o)
 .debug_aranges
                0x0000000000000750       0x30 build/cooja/mtype468.a(queuebuf.o)
 .debug_aranges
                0x0000000000000780       0x30 build/cooja/mtype468.a(packetbuf.o)
 .debug_aranges
                0x00000000000007b0       0x30 build/cooja/mtype468.a(netstack.o)
 .debug_aranges
                0x00000000000007e0       0x30 build/cooja/mtype468.a(linkaddr.o)
 .debug_aranges
                0x0000000000000810       0x30 build/cooja/mtype468.a(csma.o)
 .debug_aranges
                0x0000000000000840       0x30 build/cooja/mtype468.a(csma-output.o)
 .debug_aranges
                0x0000000000000870       0x30 build/cooja/mtype468.a(uip-ds6.o)
 .debug_aranges
                0x00000000000008a0       0x30 build/cooja/mtype468.a(uiplib.o)
 .debug_aranges
                0x00000000000008d0       0x30 build/cooja/mtype468.a(tcpip.o)
 .debug_aranges
                0x0000000000000900       0x30 build/cooja/mtype468.a(uip-ds6-route.o)
 .debug_aranges
                0x0000000000000930       0x30 build/cooja/mtype468.a(uip-ds6-nbr.o)
 .debug_aranges
                0x0000000000000960       0x30 build/cooja/mtype468.a(uip6.o)
 .debug_aranges
                0x0000000000000990       0x30 build/cooja/mtype468.a(uip-nd6.o)
 .debug_aranges
                0x00000000000009c0       0x30 build/cooja/mtype468.a(simple-udp.o)
 .debug_aranges
                0x00000000000009f0       0x30 build/cooja/mtype468.a(sicslowpan.o)
 .debug_aranges
                0x0000000000000a20       0x30 build/cooja/mtype468.a(rpl.o)
 .debug_aranges
                0x0000000000000a50       0x30 build/cooja/mtype468.a(rpl-dag.o)
 .debug_aranges
                0x0000000000000a80       0x30 build/cooja/mtype468.a(rpl-dag-root.o)
 .debug_aranges
                0x0000000000000ab0       0x30 build/cooja/mtype468.a(watchdog.o)
 .debug_aranges
                0x0000000000000ae0       0x30 build/cooja/mtype468.a(int-master.o)
 .debug_aranges
                0x0000000000000b10       0x30 build/cooja/mtype468.a(stimer.o)
 .debug_aranges
                0x0000000000000b40       0x30 build/cooja/mtype468.a(memb.o)
 .debug_aranges
                0x0000000000000b70       0x30 build/cooja/mtype468.a(assert.o)
 .debug_aranges
                0x0000000000000ba0       0x30 build/cooja/mtype468.a(ringbuf.o)
 .debug_aranges
                0x0000000000000bd0       0x30 build/cooja/mtype468.a(nbr-table.o)
 .debug_aranges
                0x0000000000000c00       0x30 build/cooja/mtype468.a(link-stats.o)
 .debug_aranges
                0x0000000000000c30       0x30 build/cooja/mtype468.a(mac-sequence.o)
 .debug_aranges
                0x0000000000000c60       0x30 build/cooja/mtype468.a(mac.o)
 .debug_aranges
                0x0000000000000c90       0x30 build/cooja/mtype468.a(framer-802154.o)
 .debug_aranges
                0x0000000000000cc0       0x30 build/cooja/mtype468.a(frame802154.o)
 .debug_aranges
                0x0000000000000cf0       0x30 build/cooja/mtype468.a(csma-security.o)
 .debug_aranges
                0x0000000000000d20       0x30 build/cooja/mtype468.a(uipbuf.o)
 .debug_aranges
                0x0000000000000d50       0x30 build/cooja/mtype468.a(uip-icmp6.o)
 .debug_aranges
                0x0000000000000d80       0x30 build/cooja/mtype468.a(uip-sr.o)
 .debug_aranges
                0x0000000000000db0       0x30 build/cooja/mtype468.a(uip-packetqueue)
 .debug_aranges
                0x0000000000000de0       0x30 build/cooja/mtype468.a(uip-udp-packet.)
 .debug_aranges
                0x0000000000000e10       0x30 build/cooja/mtype468.a(rpl-icmp6.o)
 .debug_aranges
                0x0000000000000e40       0x30 build/cooja/mtype468.a(rpl-neighbor.o)
 .debug_aranges
                0x0000000000000e70       0x30 build/cooja/mtype468.a(rpl-timers.o)
 .debug_aranges
                0x0000000000000ea0       0x30 build/cooja/mtype468.a(rpl-ext-header.)
 .debug_aranges
                0x0000000000000ed0       0x30 build/cooja/mtype468.a(rpl-nbr-policy.)
 .debug_aranges
                0x0000000000000f00       0x30 build/cooja/mtype468.a(rpl-mrhof.o)

.debug_pubnames
 *(.debug_pubnames)

.debug_info     0x0000000000000000    0x48031
 *(.debug_info .gnu.linkonce.wi.*)
 .debug_info    0x0000000000000000     0x14b5 Client.o
 .debug_info    0x00000000000014b5     0x4439 build/cooja/mtype468.o
 .debug_info    0x00000000000058ee      0x591 build/cooja/obj/Image.o
 .debug_info    0x0000000000005e7f      0x566 build/cooja/obj/ImageDB.o
 .debug_info    0x00000000000063e5     0x156d build/cooja/obj/TransferUDP.o
 .debug_info    0x0000000000007952      0x529 build/cooja/mtype468.a(simEnvChange.o)
 .debug_info    0x0000000000007e7b      0x31b build/cooja/mtype468.a(cooja_mt.o)
 .debug_info    0x0000000000008196      0x618 build/cooja/mtype468.a(cooja_mtarch.o)
 .debug_info    0x00000000000087ae      0x340 build/cooja/mtype468.a(rtimer-arch.o)
 .debug_info    0x0000000000008aee      0x3ba build/cooja/mtype468.a(beep.o)
 .debug_info    0x0000000000008ea8      0x336 build/cooja/mtype468.a(leds-arch.o)
 .debug_info    0x00000000000091de      0x29b build/cooja/mtype468.a(moteid.o)
 .debug_info    0x0000000000009479      0x3e4 build/cooja/mtype468.a(pir-sensor.o)
 .debug_info    0x000000000000985d      0x674 build/cooja/mtype468.a(rs232.o)
 .debug_info    0x0000000000009ed1      0x3e4 build/cooja/mtype468.a(vib-sensor.o)
 .debug_info    0x000000000000a2b5      0x2e7 build/cooja/mtype468.a(clock.o)
 .debug_info    0x000000000000a59c      0x742 build/cooja/mtype468.a(cooja-log.o)
 .debug_info    0x000000000000acde      0xa1f build/cooja/mtype468.a(cfs-cooja.o)
 .debug_info    0x000000000000b6fd     0x14c0 build/cooja/mtype468.a(cooja-radio.o)
 .debug_info    0x000000000000cbbd      0x37e build/cooja/mtype468.a(eeprom.o)
 .debug_info    0x000000000000cf3b       0xc3 build/cooja/mtype468.a(random.o)
 .debug_info    0x000000000000cffe      0x46f build/cooja/mtype468.a(sensors.o)
 .debug_info    0x000000000000d46d      0x453 build/cooja/mtype468.a(leds.o)
 .debug_info    0x000000000000d8c0      0xd9b build/cooja/mtype468.a(gpio-hal-arch.o)
 .debug_info    0x000000000000e65b      0xd92 build/cooja/mtype468.a(buttons.o)
 .debug_info    0x000000000000f3ed     0x2224 build/cooja/mtype468.a(contiki-main.o)
 .debug_info    0x0000000000011611      0x24b build/cooja/mtype468.a(autostart.o)
 .debug_info    0x000000000001185c      0x591 build/cooja/mtype468.a(ctimer.o)
 .debug_info    0x0000000000011ded      0xd37 build/cooja/mtype468.a(log.o)
 .debug_info    0x0000000000012b24      0x23d build/cooja/mtype468.a(energest.o)
 .debug_info    0x0000000000012d61      0x5d1 build/cooja/mtype468.a(etimer.o)
 .debug_info    0x0000000000013332      0x658 build/cooja/mtype468.a(node-id.o)
 .debug_info    0x000000000001398a      0x355 build/cooja/mtype468.a(rtimer.o)
 .debug_info    0x0000000000013cdf      0x85b build/cooja/mtype468.a(process.o)
 .debug_info    0x000000000001453a      0x2ff build/cooja/mtype468.a(timer.o)
 .debug_info    0x0000000000014839      0x574 build/cooja/mtype468.a(list.o)
 .debug_info    0x0000000000014dad      0x7e8 build/cooja/mtype468.a(button-hal.o)
 .debug_info    0x0000000000015595      0x3d1 build/cooja/mtype468.a(serial-line.o)
 .debug_info    0x0000000000015966      0xb8e build/cooja/mtype468.a(gpio-hal.o)
 .debug_info    0x00000000000164f4     0x1761 build/cooja/mtype468.a(queuebuf.o)
 .debug_info    0x0000000000017c55     0x174e build/cooja/mtype468.a(packetbuf.o)
 .debug_info    0x00000000000193a3      0x7bd build/cooja/mtype468.a(netstack.o)
 .debug_info    0x0000000000019b60      0x32b build/cooja/mtype468.a(linkaddr.o)
 .debug_info    0x0000000000019e8b      0xfaf build/cooja/mtype468.a(csma.o)
 .debug_info    0x000000000001ae3a     0x16fc build/cooja/mtype468.a(csma-output.o)
 .debug_info    0x000000000001c536     0x185a build/cooja/mtype468.a(uip-ds6.o)
 .debug_info    0x000000000001dd90      0xba0 build/cooja/mtype468.a(uiplib.o)
 .debug_info    0x000000000001e930     0x1ba1 build/cooja/mtype468.a(tcpip.o)
 .debug_info    0x00000000000204d1     0x17d8 build/cooja/mtype468.a(uip-ds6-route.o)
 .debug_info    0x0000000000021ca9     0x19b4 build/cooja/mtype468.a(uip-ds6-nbr.o)
 .debug_info    0x000000000002365d     0x1cfa build/cooja/mtype468.a(uip6.o)
 .debug_info    0x0000000000025357     0x15b2 build/cooja/mtype468.a(uip-nd6.o)
 .debug_info    0x0000000000026909     0x1642 build/cooja/mtype468.a(simple-udp.o)
 .debug_info    0x0000000000027f4b     0x2667 build/cooja/mtype468.a(sicslowpan.o)
 .debug_info    0x000000000002a5b2     0x1e18 build/cooja/mtype468.a(rpl.o)
 .debug_info    0x000000000002c3ca     0x1f43 build/cooja/mtype468.a(rpl-dag.o)
 .debug_info    0x000000000002e30d     0x1c3d build/cooja/mtype468.a(rpl-dag-root.o)
 .debug_info    0x000000000002ff4a      0x255 build/cooja/mtype468.a(watchdog.o)
 .debug_info    0x000000000003019f      0x2ab build/cooja/mtype468.a(int-master.o)
 .debug_info    0x000000000003044a      0x320 build/cooja/mtype468.a(stimer.o)
 .debug_info    0x000000000003076a      0x379 build/cooja/mtype468.a(memb.o)
 .debug_info    0x0000000000030ae3      0x475 build/cooja/mtype468.a(assert.o)
 .debug_info    0x0000000000030f58      0x359 build/cooja/mtype468.a(ringbuf.o)
 .debug_info    0x00000000000312b1     0x18e6 build/cooja/mtype468.a(nbr-table.o)
 .debug_info    0x0000000000032b97     0x1272 build/cooja/mtype468.a(link-stats.o)
 .debug_info    0x0000000000033e09     0x1352 build/cooja/mtype468.a(mac-sequence.o)
 .debug_info    0x000000000003515b      0x9f7 build/cooja/mtype468.a(mac.o)
 .debug_info    0x0000000000035b52      0xdeb build/cooja/mtype468.a(framer-802154.o)
 .debug_info    0x000000000003693d      0xd1b build/cooja/mtype468.a(frame802154.o)
 .debug_info    0x0000000000037658      0xe8d build/cooja/mtype468.a(csma-security.o)
 .debug_info    0x00000000000384e5      0xb69 build/cooja/mtype468.a(uipbuf.o)
 .debug_info    0x000000000003904e     0x1a05 build/cooja/mtype468.a(uip-icmp6.o)
 .debug_info    0x000000000003aa53     0x1777 build/cooja/mtype468.a(uip-sr.o)
 .debug_info    0x000000000003c1ca      0xbf7 build/cooja/mtype468.a(uip-packetqueue)
 .debug_info    0x000000000003cdc1      0x774 build/cooja/mtype468.a(uip-udp-packet.)
 .debug_info    0x000000000003d535     0x1fa7 build/cooja/mtype468.a(rpl-icmp6.o)
 .debug_info    0x000000000003f4dc     0x1d3c build/cooja/mtype468.a(rpl-neighbor.o)
 .debug_info    0x0000000000041218     0x1c99 build/cooja/mtype468.a(rpl-timers.o)
 .debug_info    0x0000000000042eb1     0x2181 build/cooja/mtype468.a(rpl-ext-header.)
 .debug_info    0x0000000000045032     0x16c7 build/cooja/mtype468.a(rpl-nbr-policy.)
 .debug_info    0x00000000000466f9     0x1938 build/cooja/mtype468.a(rpl-mrhof.o)

.debug_abbrev   0x0000000000000000     0xbe2e
 *(.debug_abbrev)
 .debug_abbrev  0x0000000000000000      0x269 Client.o
 .debug_abbrev  0x0000000000000269      0x38f build/cooja/mtype468.o
 .debug_abbrev  0x00000000000005f8      0x160 build/cooja/obj/Image.o
 .debug_abbrev  0x0000000000000758      0x167 build/cooja/obj/ImageDB.o
 .debug_abbrev  0x00000000000008bf      0x294 build/cooja/obj/TransferUDP.o
 .debug_abbrev  0x0000000000000b53      0x185 build/cooja/mtype468.a(simEnvChange.o)
 .debug_abbrev  0x0000000000000cd8      0x1a8 build/cooja/mtype468.a(cooja_mt.o)
 .debug_abbrev  0x0000000000000e80      0x1e6 build/cooja/mtype468.a(cooja_mtarch.o)
 .debug_abbrev  0x0000000000001066      0x186 build/cooja/mtype468.a(rtimer-arch.o)
 .debug_abbrev  0x00000000000011ec      0x1b1 build/cooja/mtype468.a(beep.o)
 .debug_abbrev  0x000000000000139d      0x178 build/cooja/mtype468.a(leds-arch.o)
 .debug_abbrev  0x0000000000001515      0x166 build/cooja/mtype468.a(moteid.o)
 .debug_abbrev  0x000000000000167b      0x1be build/cooja/mtype468.a(pir-sensor.o)
 .debug_abbrev  0x0000000000001839      0x217 build/cooja/mtype468.a(rs232.o)
 .debug_abbrev  0x0000000000001a50      0x1be build/cooja/mtype468.a(vib-sensor.o)
 .debug_abbrev  0x0000000000001c0e      0x1b1 build/cooja/mtype468.a(clock.o)
 .debug_abbrev  0x0000000000001dbf      0x247 build/cooja/mtype468.a(cooja-log.o)
 .debug_abbrev  0x0000000000002006      0x213 build/cooja/mtype468.a(cfs-cooja.o)
 .debug_abbrev  0x0000000000002219      0x3e4 build/cooja/mtype468.a(cooja-radio.o)
 .debug_abbrev  0x00000000000025fd      0x1a0 build/cooja/mtype468.a(eeprom.o)
 .debug_abbrev  0x000000000000279d       0x71 build/cooja/mtype468.a(random.o)
 .debug_abbrev  0x000000000000280e      0x202 build/cooja/mtype468.a(sensors.o)
 .debug_abbrev  0x0000000000002a10      0x1a5 build/cooja/mtype468.a(leds.o)
 .debug_abbrev  0x0000000000002bb5      0x280 build/cooja/mtype468.a(gpio-hal-arch.o)
 .debug_abbrev  0x0000000000002e35      0x242 build/cooja/mtype468.a(buttons.o)
 .debug_abbrev  0x0000000000003077      0x26d build/cooja/mtype468.a(contiki-main.o)
 .debug_abbrev  0x00000000000032e4      0x143 build/cooja/mtype468.a(autostart.o)
 .debug_abbrev  0x0000000000003427      0x1e4 build/cooja/mtype468.a(ctimer.o)
 .debug_abbrev  0x000000000000360b      0x251 build/cooja/mtype468.a(log.o)
 .debug_abbrev  0x000000000000385c      0x121 build/cooja/mtype468.a(energest.o)
 .debug_abbrev  0x000000000000397d      0x257 build/cooja/mtype468.a(etimer.o)
 .debug_abbrev  0x0000000000003bd4      0x1a4 build/cooja/mtype468.a(node-id.o)
 .debug_abbrev  0x0000000000003d78      0x1ca build/cooja/mtype468.a(rtimer.o)
 .debug_abbrev  0x0000000000003f42      0x2b3 build/cooja/mtype468.a(process.o)
 .debug_abbrev  0x00000000000041f5      0x194 build/cooja/mtype468.a(timer.o)
 .debug_abbrev  0x0000000000004389      0x20c build/cooja/mtype468.a(list.o)
 .debug_abbrev  0x0000000000004595      0x28a build/cooja/mtype468.a(button-hal.o)
 .debug_abbrev  0x000000000000481f      0x1d1 build/cooja/mtype468.a(serial-line.o)
 .debug_abbrev  0x00000000000049f0      0x21d build/cooja/mtype468.a(gpio-hal.o)
 .debug_abbrev  0x0000000000004c0d      0x304 build/cooja/mtype468.a(queuebuf.o)
 .debug_abbrev  0x0000000000004f11      0x31f build/cooja/mtype468.a(packetbuf.o)
 .debug_abbrev  0x0000000000005230      0x233 build/cooja/mtype468.a(netstack.o)
 .debug_abbrev  0x0000000000005463      0x197 build/cooja/mtype468.a(linkaddr.o)
 .debug_abbrev  0x00000000000055fa      0x2b9 build/cooja/mtype468.a(csma.o)
 .debug_abbrev  0x00000000000058b3      0x323 build/cooja/mtype468.a(csma-output.o)
 .debug_abbrev  0x0000000000005bd6      0x366 build/cooja/mtype468.a(uip-ds6.o)
 .debug_abbrev  0x0000000000005f3c      0x22d build/cooja/mtype468.a(uiplib.o)
 .debug_abbrev  0x0000000000006169      0x436 build/cooja/mtype468.a(tcpip.o)
 .debug_abbrev  0x000000000000659f      0x37e build/cooja/mtype468.a(uip-ds6-route.o)
 .debug_abbrev  0x000000000000691d      0x330 build/cooja/mtype468.a(uip-ds6-nbr.o)
 .debug_abbrev  0x0000000000006c4d      0x34b build/cooja/mtype468.a(uip6.o)
 .debug_abbrev  0x0000000000006f98      0x2ac build/cooja/mtype468.a(uip-nd6.o)
 .debug_abbrev  0x0000000000007244      0x2a1 build/cooja/mtype468.a(simple-udp.o)
 .debug_abbrev  0x00000000000074e5      0x39c build/cooja/mtype468.a(sicslowpan.o)
 .debug_abbrev  0x0000000000007881      0x365 build/cooja/mtype468.a(rpl.o)
 .debug_abbrev  0x0000000000007be6      0x430 build/cooja/mtype468.a(rpl-dag.o)
 .debug_abbrev  0x0000000000008016      0x2d7 build/cooja/mtype468.a(rpl-dag-root.o)
 .debug_abbrev  0x00000000000082ed      0x11f build/cooja/mtype468.a(watchdog.o)
 .debug_abbrev  0x000000000000840c      0x18e build/cooja/mtype468.a(int-master.o)
 .debug_abbrev  0x000000000000859a      0x183 build/cooja/mtype468.a(stimer.o)
 .debug_abbrev  0x000000000000871d      0x178 build/cooja/mtype468.a(memb.o)
 .debug_abbrev  0x0000000000008895      0x157 build/cooja/mtype468.a(assert.o)
 .debug_abbrev  0x00000000000089ec      0x178 build/cooja/mtype468.a(ringbuf.o)
 .debug_abbrev  0x0000000000008b64      0x3a9 build/cooja/mtype468.a(nbr-table.o)
 .debug_abbrev  0x0000000000008f0d      0x315 build/cooja/mtype468.a(link-stats.o)
 .debug_abbrev  0x0000000000009222      0x25c build/cooja/mtype468.a(mac-sequence.o)
 .debug_abbrev  0x000000000000947e      0x1d6 build/cooja/mtype468.a(mac.o)
 .debug_abbrev  0x0000000000009654      0x262 build/cooja/mtype468.a(framer-802154.o)
 .debug_abbrev  0x00000000000098b6      0x310 build/cooja/mtype468.a(frame802154.o)
 .debug_abbrev  0x0000000000009bc6      0x1fc build/cooja/mtype468.a(csma-security.o)
 .debug_abbrev  0x0000000000009dc2      0x256 build/cooja/mtype468.a(uipbuf.o)
 .debug_abbrev  0x000000000000a018      0x309 build/cooja/mtype468.a(uip-icmp6.o)
 .debug_abbrev  0x000000000000a321      0x309 build/cooja/mtype468.a(uip-sr.o)
 .debug_abbrev  0x000000000000a62a      0x28c build/cooja/mtype468.a(uip-packetqueue)
 .debug_abbrev  0x000000000000a8b6      0x1f9 build/cooja/mtype468.a(uip-udp-packet.)
 .debug_abbrev  0x000000000000aaaf      0x3af build/cooja/mtype468.a(rpl-icmp6.o)
 .debug_abbrev  0x000000000000ae5e      0x3c7 build/cooja/mtype468.a(rpl-neighbor.o)
 .debug_abbrev  0x000000000000b225      0x378 build/cooja/mtype468.a(rpl-timers.o)
 .debug_abbrev  0x000000000000b59d      0x379 build/cooja/mtype468.a(rpl-ext-header.)
 .debug_abbrev  0x000000000000b916      0x26f build/cooja/mtype468.a(rpl-nbr-policy.)
 .debug_abbrev  0x000000000000bb85      0x2a9 build/cooja/mtype468.a(rpl-mrhof.o)

.debug_line     0x0000000000000000    0x1608a
 *(.debug_line .debug_line.* .debug_line_end)
 .debug_line    0x0000000000000000      0x47b Client.o
 .debug_line    0x000000000000047b      0x6ad build/cooja/mtype468.o
 .debug_line    0x0000000000000b28      0x44e build/cooja/obj/Image.o
 .debug_line    0x0000000000000f76      0x1fb build/cooja/obj/ImageDB.o
 .debug_line    0x0000000000001171      0x48a build/cooja/obj/TransferUDP.o
 .debug_line    0x00000000000015fb      0x28a build/cooja/mtype468.a(simEnvChange.o)
 .debug_line    0x0000000000001885      0x1c8 build/cooja/mtype468.a(cooja_mt.o)
 .debug_line    0x0000000000001a4d      0x2c7 build/cooja/mtype468.a(cooja_mtarch.o)
 .debug_line    0x0000000000001d14      0x1c3 build/cooja/mtype468.a(rtimer-arch.o)
 .debug_line    0x0000000000001ed7      0x188 build/cooja/mtype468.a(beep.o)
 .debug_line    0x000000000000205f      0x1de build/cooja/mtype468.a(leds-arch.o)
 .debug_line    0x000000000000223d      0x196 build/cooja/mtype468.a(moteid.o)
 .debug_line    0x00000000000023d3      0x1fe build/cooja/mtype468.a(pir-sensor.o)
 .debug_line    0x00000000000025d1      0x320 build/cooja/mtype468.a(rs232.o)
 .debug_line    0x00000000000028f1      0x1fe build/cooja/mtype468.a(vib-sensor.o)
 .debug_line    0x0000000000002aef      0x15e build/cooja/mtype468.a(clock.o)
 .debug_line    0x0000000000002c4d      0x2f1 build/cooja/mtype468.a(cooja-log.o)
 .debug_line    0x0000000000002f3e      0x3a8 build/cooja/mtype468.a(cfs-cooja.o)
 .debug_line    0x00000000000032e6      0x5d2 build/cooja/mtype468.a(cooja-radio.o)
 .debug_line    0x00000000000038b8      0x1d0 build/cooja/mtype468.a(eeprom.o)
 .debug_line    0x0000000000003a88       0x69 build/cooja/mtype468.a(random.o)
 .debug_line    0x0000000000003af1      0x28f build/cooja/mtype468.a(sensors.o)
 .debug_line    0x0000000000003d80      0x2c5 build/cooja/mtype468.a(leds.o)
 .debug_line    0x0000000000004045      0x458 build/cooja/mtype468.a(gpio-hal-arch.o)
 .debug_line    0x000000000000449d      0x35a build/cooja/mtype468.a(buttons.o)
 .debug_line    0x00000000000047f7      0x6d1 build/cooja/mtype468.a(contiki-main.o)
 .debug_line    0x0000000000004ec8      0x17a build/cooja/mtype468.a(autostart.o)
 .debug_line    0x0000000000005042      0x269 build/cooja/mtype468.a(ctimer.o)
 .debug_line    0x00000000000052ab      0x3bb build/cooja/mtype468.a(log.o)
 .debug_line    0x0000000000005666      0x167 build/cooja/mtype468.a(energest.o)
 .debug_line    0x00000000000057cd      0x342 build/cooja/mtype468.a(etimer.o)
 .debug_line    0x0000000000005b0f      0x1db build/cooja/mtype468.a(node-id.o)
 .debug_line    0x0000000000005cea      0x1bc build/cooja/mtype468.a(rtimer.o)
 .debug_line    0x0000000000005ea6      0x443 build/cooja/mtype468.a(process.o)
 .debug_line    0x00000000000062e9      0x181 build/cooja/mtype468.a(timer.o)
 .debug_line    0x000000000000646a      0x2e2 build/cooja/mtype468.a(list.o)
 .debug_line    0x000000000000674c      0x3b9 build/cooja/mtype468.a(button-hal.o)
 .debug_line    0x0000000000006b05      0x273 build/cooja/mtype468.a(serial-line.o)
 .debug_line    0x0000000000006d78      0x324 build/cooja/mtype468.a(gpio-hal.o)
 .debug_line    0x000000000000709c      0x4a4 build/cooja/mtype468.a(queuebuf.o)
 .debug_line    0x0000000000007540      0x529 build/cooja/mtype468.a(packetbuf.o)
 .debug_line    0x0000000000007a69      0x2e2 build/cooja/mtype468.a(netstack.o)
 .debug_line    0x0000000000007d4b      0x1a2 build/cooja/mtype468.a(linkaddr.o)
 .debug_line    0x0000000000007eed      0x407 build/cooja/mtype468.a(csma.o)
 .debug_line    0x00000000000082f4      0x6d7 build/cooja/mtype468.a(csma-output.o)
 .debug_line    0x00000000000089cb      0x850 build/cooja/mtype468.a(uip-ds6.o)
 .debug_line    0x000000000000921b      0x4b3 build/cooja/mtype468.a(uiplib.o)
 .debug_line    0x00000000000096ce      0x6a3 build/cooja/mtype468.a(tcpip.o)
 .debug_line    0x0000000000009d71      0x551 build/cooja/mtype468.a(uip-ds6-route.o)
 .debug_line    0x000000000000a2c2      0x57a build/cooja/mtype468.a(uip-ds6-nbr.o)
 .debug_line    0x000000000000a83c      0xc23 build/cooja/mtype468.a(uip6.o)
 .debug_line    0x000000000000b45f      0x653 build/cooja/mtype468.a(uip-nd6.o)
 .debug_line    0x000000000000bab2      0x4a6 build/cooja/mtype468.a(simple-udp.o)
 .debug_line    0x000000000000bf58     0x1710 build/cooja/mtype468.a(sicslowpan.o)
 .debug_line    0x000000000000d668      0x689 build/cooja/mtype468.a(rpl.o)
 .debug_line    0x000000000000dcf1      0xa38 build/cooja/mtype468.a(rpl-dag.o)
 .debug_line    0x000000000000e729      0x568 build/cooja/mtype468.a(rpl-dag-root.o)
 .debug_line    0x000000000000ec91      0x15b build/cooja/mtype468.a(watchdog.o)
 .debug_line    0x000000000000edec      0x18f build/cooja/mtype468.a(int-master.o)
 .debug_line    0x000000000000ef7b      0x185 build/cooja/mtype468.a(stimer.o)
 .debug_line    0x000000000000f100      0x269 build/cooja/mtype468.a(memb.o)
 .debug_line    0x000000000000f369      0x20e build/cooja/mtype468.a(assert.o)
 .debug_line    0x000000000000f577      0x227 build/cooja/mtype468.a(ringbuf.o)
 .debug_line    0x000000000000f79e      0x794 build/cooja/mtype468.a(nbr-table.o)
 .debug_line    0x000000000000ff32      0x4fd build/cooja/mtype468.a(link-stats.o)
 .debug_line    0x000000000001042f      0x468 build/cooja/mtype468.a(mac-sequence.o)
 .debug_line    0x0000000000010897      0x295 build/cooja/mtype468.a(mac.o)
 .debug_line    0x0000000000010b2c      0x46f build/cooja/mtype468.a(framer-802154.o)
 .debug_line    0x0000000000010f9b      0x7f5 build/cooja/mtype468.a(frame802154.o)
 .debug_line    0x0000000000011790      0x384 build/cooja/mtype468.a(csma-security.o)
 .debug_line    0x0000000000011b14      0x3d3 build/cooja/mtype468.a(uipbuf.o)
 .debug_line    0x0000000000011ee7      0x69d build/cooja/mtype468.a(uip-icmp6.o)
 .debug_line    0x0000000000012584      0x64f build/cooja/mtype468.a(uip-sr.o)
 .debug_line    0x0000000000012bd3      0x362 build/cooja/mtype468.a(uip-packetqueue)
 .debug_line    0x0000000000012f35      0x23d build/cooja/mtype468.a(uip-udp-packet.)
 .debug_line    0x0000000000013172      0xbe4 build/cooja/mtype468.a(rpl-icmp6.o)
 .debug_line    0x0000000000013d56      0x814 build/cooja/mtype468.a(rpl-neighbor.o)
 .debug_line    0x000000000001456a      0x7c4 build/cooja/mtype468.a(rpl-timers.o)
 .debug_line    0x0000000000014d2e      0x99b build/cooja/mtype468.a(rpl-ext-header.)
 .debug_line    0x00000000000156c9      0x41a build/cooja/mtype468.a(rpl-nbr-policy.)
 .debug_line    0x0000000000015ae3      0x5a7 build/cooja/mtype468.a(rpl-mrhof.o)

.debug_frame
 *(.debug_frame)

.debug_str      0x0000000000000000     0x911b
 *(.debug_str)
 .debug_str     0x0000000000000000      0xb1a Client.o
                                        0xdc5 (size before relaxing)
 .debug_str     0x0000000000000b1a     0x1938 build/cooja/mtype468.o
                                       0x23a4 (size before relaxing)
 .debug_str     0x0000000000002452       0x43 build/cooja/obj/Image.o
                                        0x3a0 (size before relaxing)
 .debug_str     0x0000000000002495       0x53 build/cooja/obj/ImageDB.o
                                        0x3b7 (size before relaxing)
 .debug_str     0x00000000000024e8      0x10f build/cooja/obj/TransferUDP.o
                                        0xe41 (size before relaxing)
 .debug_str     0x00000000000025f7       0x61 build/cooja/mtype468.a(simEnvChange.o)
                                        0x46b (size before relaxing)
 .debug_str     0x0000000000002658       0x65 build/cooja/mtype468.a(cooja_mt.o)
                                        0x2dd (size before relaxing)
 .debug_str     0x00000000000026bd       0xa4 build/cooja/mtype468.a(cooja_mtarch.o)
                                        0x4de (size before relaxing)
 .debug_str     0x0000000000002761      0x111 build/cooja/mtype468.a(rtimer-arch.o)
                                        0x381 (size before relaxing)
 .debug_str     0x0000000000002872       0xd3 build/cooja/mtype468.a(beep.o)
                                        0x345 (size before relaxing)
 .debug_str     0x0000000000002945       0xab build/cooja/mtype468.a(leds-arch.o)
                                        0x369 (size before relaxing)
 .debug_str     0x00000000000029f0       0x56 build/cooja/mtype468.a(moteid.o)
                                        0x308 (size before relaxing)
 .debug_str     0x0000000000002a46       0x64 build/cooja/mtype468.a(pir-sensor.o)
                                        0x35d (size before relaxing)
 .debug_str     0x0000000000002aaa       0xd0 build/cooja/mtype468.a(rs232.o)
                                        0x5a1 (size before relaxing)
 .debug_str     0x0000000000002b7a       0x64 build/cooja/mtype468.a(vib-sensor.o)
                                        0x35d (size before relaxing)
 .debug_str     0x0000000000002bde       0x71 build/cooja/mtype468.a(clock.o)
                                        0x318 (size before relaxing)
 .debug_str     0x0000000000002c4f      0x107 build/cooja/mtype468.a(cooja-log.o)
                                        0x5c3 (size before relaxing)
 .debug_str     0x0000000000002d56      0x219 build/cooja/mtype468.a(cfs-cooja.o)
                                        0x68a (size before relaxing)
 .debug_str     0x0000000000002f6f      0x683 build/cooja/mtype468.a(cooja-radio.o)
                                        0xfcc (size before relaxing)
 .debug_str     0x00000000000035f2       0xa8 build/cooja/mtype468.a(eeprom.o)
                                        0x355 (size before relaxing)
 .debug_str     0x000000000000369a       0x43 build/cooja/mtype468.a(random.o)
                                        0x197 (size before relaxing)
 .debug_str     0x00000000000036dd       0x9b build/cooja/mtype468.a(sensors.o)
                                        0x350 (size before relaxing)
 .debug_str     0x0000000000003778       0x9a build/cooja/mtype468.a(leds.o)
                                        0x332 (size before relaxing)
 .debug_str     0x0000000000003812      0x2b5 build/cooja/mtype468.a(gpio-hal-arch.o)
                                        0xa37 (size before relaxing)
 .debug_str     0x0000000000003ac7      0x104 build/cooja/mtype468.a(buttons.o)
                                        0xa10 (size before relaxing)
 .debug_str     0x0000000000003bcb      0xb18 build/cooja/mtype468.a(contiki-main.o)
                                       0x1b0d (size before relaxing)
 .debug_str     0x00000000000046e3       0x48 build/cooja/mtype468.a(autostart.o)
                                        0x27c (size before relaxing)
 .debug_str     0x000000000000472b       0xdf build/cooja/mtype468.a(ctimer.o)
                                        0x360 (size before relaxing)
 .debug_str     0x000000000000480a       0xc0 build/cooja/mtype468.a(log.o)
                                        0x859 (size before relaxing)
 .debug_str     0x00000000000048ca       0x5d build/cooja/mtype468.a(energest.o)
                                        0x29b (size before relaxing)
 .debug_str     0x0000000000004927      0x160 build/cooja/mtype468.a(etimer.o)
                                        0x3c4 (size before relaxing)
 .debug_str     0x0000000000004a87       0x34 build/cooja/mtype468.a(node-id.o)
                                        0x4ac (size before relaxing)
 .debug_str     0x0000000000004abb       0xc0 build/cooja/mtype468.a(rtimer.o)
                                        0x31f (size before relaxing)
 .debug_str     0x0000000000004b7b      0x157 build/cooja/mtype468.a(process.o)
                                        0x557 (size before relaxing)
 .debug_str     0x0000000000004cd2       0x25 build/cooja/mtype468.a(timer.o)
                                        0x2ab (size before relaxing)
 .debug_str     0x0000000000004cf7       0xc4 build/cooja/mtype468.a(list.o)
                                        0x30a (size before relaxing)
 .debug_str     0x0000000000004dbb      0x1a4 build/cooja/mtype468.a(button-hal.o)
                                        0x5b3 (size before relaxing)
 .debug_str     0x0000000000004f5f       0x90 build/cooja/mtype468.a(serial-line.o)
                                        0x335 (size before relaxing)
 .debug_str     0x0000000000004fef      0x10a build/cooja/mtype468.a(gpio-hal.o)
                                        0x8fc (size before relaxing)
 .debug_str     0x00000000000050f9      0x1da build/cooja/mtype468.a(queuebuf.o)
                                        0xf10 (size before relaxing)
 .debug_str     0x00000000000052d3      0x1c4 build/cooja/mtype468.a(packetbuf.o)
                                        0xf45 (size before relaxing)
 .debug_str     0x0000000000005497      0x177 build/cooja/mtype468.a(netstack.o)
                                        0x5fa (size before relaxing)
 .debug_str     0x000000000000560e       0x5a build/cooja/mtype468.a(linkaddr.o)
                                        0x2d5 (size before relaxing)
 .debug_str     0x0000000000005668       0x92 build/cooja/mtype468.a(csma.o)
                                        0xdff (size before relaxing)
 .debug_str     0x00000000000056fa      0x2ae build/cooja/mtype468.a(csma-output.o)
                                        0xebc (size before relaxing)
 .debug_str     0x00000000000059a8      0x2f7 build/cooja/mtype468.a(uip-ds6.o)
                                        0xecf (size before relaxing)
 .debug_str     0x0000000000005c9f       0xa0 build/cooja/mtype468.a(uiplib.o)
                                        0x810 (size before relaxing)
 .debug_str     0x0000000000005d3f      0x28e build/cooja/mtype468.a(tcpip.o)
                                       0x11d8 (size before relaxing)
 .debug_str     0x0000000000005fcd      0x258 build/cooja/mtype468.a(uip-ds6-route.o)
                                        0xf68 (size before relaxing)
 .debug_str     0x0000000000006225      0x1d2 build/cooja/mtype468.a(uip-ds6-nbr.o)
                                       0x116f (size before relaxing)
 .debug_str     0x00000000000063f7      0x21c build/cooja/mtype468.a(uip6.o)
                                       0x112b (size before relaxing)
 .debug_str     0x0000000000006613      0x12d build/cooja/mtype468.a(uip-nd6.o)
                                        0xed6 (size before relaxing)
 .debug_str     0x0000000000006740       0xc1 build/cooja/mtype468.a(simple-udp.o)
                                        0xd55 (size before relaxing)
 .debug_str     0x0000000000006801      0x5d8 build/cooja/mtype468.a(sicslowpan.o)
                                       0x17e9 (size before relaxing)
 .debug_str     0x0000000000006dd9      0x12f build/cooja/mtype468.a(rpl.o)
                                       0x13af (size before relaxing)
 .debug_str     0x0000000000006f08      0x371 build/cooja/mtype468.a(rpl-dag.o)
                                       0x1462 (size before relaxing)
 .debug_str     0x0000000000007279       0xb1 build/cooja/mtype468.a(rpl-dag-root.o)
                                       0x133f (size before relaxing)
 .debug_str     0x000000000000732a       0x86 build/cooja/mtype468.a(watchdog.o)
                                        0x2b0 (size before relaxing)
 .debug_str     0x00000000000073b0       0x98 build/cooja/mtype468.a(int-master.o)
                                        0x2f7 (size before relaxing)
 .debug_str     0x0000000000007448       0x7c build/cooja/mtype468.a(stimer.o)
                                        0x2bc (size before relaxing)
 .debug_str     0x00000000000074c4       0x6a build/cooja/mtype468.a(memb.o)
                                        0x2a9 (size before relaxing)
 .debug_str     0x000000000000752e       0x36 build/cooja/mtype468.a(assert.o)
                                        0x427 (size before relaxing)
 .debug_str     0x0000000000007564       0x6a build/cooja/mtype468.a(ringbuf.o)
                                        0x2d5 (size before relaxing)
 .debug_str     0x00000000000075ce      0x383 build/cooja/mtype468.a(nbr-table.o)
                                        0xd7e (size before relaxing)
 .debug_str     0x0000000000007951      0x139 build/cooja/mtype468.a(link-stats.o)
                                        0xe7b (size before relaxing)
 .debug_str     0x0000000000007a8a       0x80 build/cooja/mtype468.a(mac-sequence.o)
                                        0xd9f (size before relaxing)
 .debug_str     0x0000000000007b0a       0x45 build/cooja/mtype468.a(mac.o)
                                        0x7d8 (size before relaxing)
 .debug_str     0x0000000000007b4f      0x23d build/cooja/mtype468.a(framer-802154.o)
                                        0xbcc (size before relaxing)
 .debug_str     0x0000000000007d8c      0x202 build/cooja/mtype468.a(frame802154.o)
                                        0x890 (size before relaxing)
 .debug_str     0x0000000000007f8e       0x9f build/cooja/mtype468.a(csma-security.o)
                                        0xb83 (size before relaxing)
 .debug_str     0x000000000000802d      0x1bf build/cooja/mtype468.a(uipbuf.o)
                                        0x794 (size before relaxing)
 .debug_str     0x00000000000081ec      0x1fd build/cooja/mtype468.a(uip-icmp6.o)
                                       0x110a (size before relaxing)
 .debug_str     0x00000000000083e9      0x199 build/cooja/mtype468.a(uip-sr.o)
                                        0xebb (size before relaxing)
 .debug_str     0x0000000000008582      0x103 build/cooja/mtype468.a(uip-packetqueue)
                                        0x7e4 (size before relaxing)
 .debug_str     0x0000000000008685       0x7b build/cooja/mtype468.a(uip-udp-packet.)
                                        0x51b (size before relaxing)
 .debug_str     0x0000000000008700      0x156 build/cooja/mtype468.a(rpl-icmp6.o)
                                       0x158b (size before relaxing)
 .debug_str     0x0000000000008856      0x276 build/cooja/mtype468.a(rpl-neighbor.o)
                                       0x1318 (size before relaxing)
 .debug_str     0x0000000000008acc      0x334 build/cooja/mtype468.a(rpl-timers.o)
                                       0x135e (size before relaxing)
 .debug_str     0x0000000000008e00      0x1eb build/cooja/mtype468.a(rpl-ext-header.)
                                       0x1739 (size before relaxing)
 .debug_str     0x0000000000008feb       0x61 build/cooja/mtype468.a(rpl-nbr-policy.)
                                       0x100f (size before relaxing)
 .debug_str     0x000000000000904c       0xcf build/cooja/mtype468.a(rpl-mrhof.o)
                                       0x10c1 (size before relaxing)

.debug_loc
 *(.debug_loc)

.debug_macinfo
 *(.debug_macinfo)

.debug_weaknames
 *(.debug_weaknames)

.debug_funcnames
 *(.debug_funcnames)

.debug_typenames
 *(.debug_typenames)

.debug_varnames
 *(.debug_varnames)

.debug_pubtypes
 *(.debug_pubtypes)

.debug_ranges   0x0000000000000000      0x110
 *(.debug_ranges)
 .debug_ranges  0x0000000000000000       0x30 build/cooja/mtype468.a(etimer.o)
 .debug_ranges  0x0000000000000030       0x60 build/cooja/mtype468.a(csma-output.o)
 .debug_ranges  0x0000000000000090       0x30 build/cooja/mtype468.a(tcpip.o)
 .debug_ranges  0x00000000000000c0       0x50 build/cooja/mtype468.a(uip-nd6.o)

.debug_macro
 *(.debug_macro)

.debug_addr
 *(.debug_addr)

.gnu.attributes
 *(.gnu.attributes)

/DISCARD/
 *(.note.GNU-stack)
 *(.gnu_debuglink)
 *(.gnu.lto_*)
OUTPUT(build/cooja/mtype468.cooja elf64-x86-64)
